

Microchip Technology PIC LITE Macro Assembler V1.42 build -159332390 
                                                                                               Sun Sep 10 12:50:42 2017

Microchip Technology Omniscient Code Generator v1.42 (Free mode) build 201704130522
     1                           	processor	16F15325
     2                           	opt	pw 120
     3                           	opt	lm
     4                           	psect	idataBANK0,global,class=CODE,delta=2
     5                           	psect	cinit,global,class=CODE,merge=1,delta=2
     6                           	psect	dataBANK0,global,class=BANK0,space=1,delta=1
     7                           	psect	cstackCOMMON,global,class=COMMON,space=1,delta=1
     8                           	psect	cstackBANK0,global,class=BANK0,space=1,delta=1
     9                           	psect	maintext,global,class=CODE,merge=1,split=1,delta=2
    10                           	psect	swtext1,local,class=CONST,delta=2
    11                           	psect	swtext2,local,class=CONST,delta=2
    12                           	psect	text1,local,class=CODE,merge=1,delta=2
    13                           	psect	text2,local,class=CODE,merge=1,delta=2
    14                           	psect	text3,local,class=CODE,merge=1,delta=2
    15                           	psect	text4,local,class=CODE,merge=1,delta=2,group=1
    16                           	psect	text5,local,class=CODE,merge=1,delta=2,group=1
    17                           	psect	text6,local,class=CODE,merge=1,delta=2,group=1
    18                           	psect	text7,local,class=CODE,merge=1,delta=2
    19                           	psect	text8,local,class=CODE,merge=1,delta=2
    20                           	psect	text9,local,class=CODE,merge=1,delta=2
    21                           	psect	maintext_split_1,global,class=CODE,merge=1,split=1,delta=2
    22                           	psect	maintext_split_2,global,class=CODE,merge=1,split=1,delta=2
    23                           	psect	maintext_split_3,global,class=CODE,merge=1,split=1,delta=2
    24                           	dabs	1,0x7E,2
    25  0000                     
    26                           ; Version 1.42
    27                           ; Generated 13/04/2017 GMT
    28                           ; 
    29                           ; Copyright © 2017, Microchip Technology Inc. and its subsidiaries ("Microchip")
    30                           ; All rights reserved.
    31                           ; 
    32                           ; This software is developed by Microchip Technology Inc. and its subsidiaries ("Microch
      +                          ip").
    33                           ; 
    34                           ; Redistribution and use in source and binary forms, with or without modification, are
    35                           ; permitted provided that the following conditions are met:
    36                           ; 
    37                           ;     1. Redistributions of source code must retain the above copyright notice, this lis
      +                          t of
    38                           ;        conditions and the following disclaimer.
    39                           ; 
    40                           ;     2. Redistributions in binary form must reproduce the above copyright notice, this 
      +                          list
    41                           ;        of conditions and the following disclaimer in the documentation and/or other
    42                           ;        materials provided with the distribution.
    43                           ; 
    44                           ;     3. Microchip's name may not be used to endorse or promote products derived from th
      +                          is
    45                           ;        software without specific prior written permission.
    46                           ; 
    47                           ; THIS SOFTWARE IS PROVIDED BY MICROCHIP "AS IS" AND ANY EXPRESS OR IMPLIED WARRANTIES,
    48                           ; INCLUDING, BUT NOT LIMITED TO, THE IMPLIED WARRANTIES OF MERCHANTABILITY AND FITNESS F
      +                          OR
    49                           ; PURPOSE ARE DISCLAIMED.  IN NO EVENT SHALL MICROCHIP BE LIABLE FOR ANY DIRECT, INDIREC
      +                          T,
    50                           ; INCIDENTAL, SPECIAL, EXEMPLARY, OR CONSEQUENTIAL DAMAGES (INCLUDING BUT NOT LIMITED TO
    51                           ; PROCUREMENT OF SUBSTITUTE GOODS OR SERVICES; LOSS OF USE, DATA OR PROFITS; OR BUSINESS
    52                           ; INTERRUPTION) HOWSOEVER CAUSED AND ON ANY THEORY OF LIABILITY, WHETHER IN CONTRACT, ST
      +                          RICT
    53                           ; LIABILITY, OR TORT (INCLUDING NEGLIGENCE OR OTHERWISE) ARISING IN ANY WAY OUT OF THE U
      +                          SE OF
    54                           ; THIS SOFTWARE, EVEN IF ADVISED OF THE POSSIBILITY OF SUCH DAMAGE.
    55                           ; 
    56                           ; 
    57                           ; Code-generator required, PIC16F15325 Definitions
    58                           ; 
    59                           ; SFR Addresses
    60  0000                     	;# 
    61  0001                     	;# 
    62  0002                     	;# 
    63  0003                     	;# 
    64  0004                     	;# 
    65  0005                     	;# 
    66  0006                     	;# 
    67  0007                     	;# 
    68  0008                     	;# 
    69  0009                     	;# 
    70  000A                     	;# 
    71  000B                     	;# 
    72  000C                     	;# 
    73  000E                     	;# 
    74  0012                     	;# 
    75  0014                     	;# 
    76  0018                     	;# 
    77  001A                     	;# 
    78  009B                     	;# 
    79  009B                     	;# 
    80  009C                     	;# 
    81  009D                     	;# 
    82  009E                     	;# 
    83  009F                     	;# 
    84  0119                     	;# 
    85  0119                     	;# 
    86  0119                     	;# 
    87  011A                     	;# 
    88  011A                     	;# 
    89  011A                     	;# 
    90  011B                     	;# 
    91  011B                     	;# 
    92  011B                     	;# 
    93  011B                     	;# 
    94  011B                     	;# 
    95  011C                     	;# 
    96  011C                     	;# 
    97  011C                     	;# 
    98  011D                     	;# 
    99  011D                     	;# 
   100  011D                     	;# 
   101  011E                     	;# 
   102  011E                     	;# 
   103  011E                     	;# 
   104  011F                     	;# 
   105  011F                     	;# 
   106  011F                     	;# 
   107  011F                     	;# 
   108  011F                     	;# 
   109  018C                     	;# 
   110  018D                     	;# 
   111  018E                     	;# 
   112  018F                     	;# 
   113  0190                     	;# 
   114  0191                     	;# 
   115  0192                     	;# 
   116  020C                     	;# 
   117  020C                     	;# 
   118  020D                     	;# 
   119  020E                     	;# 
   120  020F                     	;# 
   121  020F                     	;# 
   122  0210                     	;# 
   123  0210                     	;# 
   124  0211                     	;# 
   125  0211                     	;# 
   126  028C                     	;# 
   127  028C                     	;# 
   128  028D                     	;# 
   129  028D                     	;# 
   130  028E                     	;# 
   131  028F                     	;# 
   132  0290                     	;# 
   133  0291                     	;# 
   134  030C                     	;# 
   135  030C                     	;# 
   136  030D                     	;# 
   137  030E                     	;# 
   138  030F                     	;# 
   139  0310                     	;# 
   140  0310                     	;# 
   141  0311                     	;# 
   142  0312                     	;# 
   143  0313                     	;# 
   144  0314                     	;# 
   145  0315                     	;# 
   146  0316                     	;# 
   147  0318                     	;# 
   148  0319                     	;# 
   149  031A                     	;# 
   150  031C                     	;# 
   151  031D                     	;# 
   152  031E                     	;# 
   153  038C                     	;# 
   154  038D                     	;# 
   155  038E                     	;# 
   156  058C                     	;# 
   157  058C                     	;# 
   158  058D                     	;# 
   159  058E                     	;# 
   160  058F                     	;# 
   161  058F                     	;# 
   162  0590                     	;# 
   163  0591                     	;# 
   164  0592                     	;# 
   165  0593                     	;# 
   166  059C                     	;# 
   167  059C                     	;# 
   168  059D                     	;# 
   169  059D                     	;# 
   170  059E                     	;# 
   171  059F                     	;# 
   172  060C                     	;# 
   173  060D                     	;# 
   174  060E                     	;# 
   175  060F                     	;# 
   176  0610                     	;# 
   177  0611                     	;# 
   178  0612                     	;# 
   179  0613                     	;# 
   180  0614                     	;# 
   181  070C                     	;# 
   182  070D                     	;# 
   183  070E                     	;# 
   184  070F                     	;# 
   185  0710                     	;# 
   186  0711                     	;# 
   187  0712                     	;# 
   188  0713                     	;# 
   189  0716                     	;# 
   190  0717                     	;# 
   191  0718                     	;# 
   192  0719                     	;# 
   193  071A                     	;# 
   194  071B                     	;# 
   195  071C                     	;# 
   196  071D                     	;# 
   197  0796                     	;# 
   198  0797                     	;# 
   199  0798                     	;# 
   200  0799                     	;# 
   201  079A                     	;# 
   202  079B                     	;# 
   203  080C                     	;# 
   204  080D                     	;# 
   205  080E                     	;# 
   206  080F                     	;# 
   207  0810                     	;# 
   208  0811                     	;# 
   209  0812                     	;# 
   210  0813                     	;# 
   211  0814                     	;# 
   212  081A                     	;# 
   213  081A                     	;# 
   214  081B                     	;# 
   215  081C                     	;# 
   216  081C                     	;# 
   217  081D                     	;# 
   218  081E                     	;# 
   219  081F                     	;# 
   220  088C                     	;# 
   221  088D                     	;# 
   222  088E                     	;# 
   223  088F                     	;# 
   224  0890                     	;# 
   225  0891                     	;# 
   226  0892                     	;# 
   227  0893                     	;# 
   228  0895                     	;# 
   229  0896                     	;# 
   230  090C                     	;# 
   231  090E                     	;# 
   232  090F                     	;# 
   233  091F                     	;# 
   234  098F                     	;# 
   235  098F                     	;# 
   236  0990                     	;# 
   237  0991                     	;# 
   238  0992                     	;# 
   239  0993                     	;# 
   240  0994                     	;# 
   241  0995                     	;# 
   242  0996                     	;# 
   243  0997                     	;# 
   244  0A19                     	;# 
   245  0A19                     	;# 
   246  0A1A                     	;# 
   247  0A1A                     	;# 
   248  0A1B                     	;# 
   249  0A1B                     	;# 
   250  0A1B                     	;# 
   251  0A1C                     	;# 
   252  0A1C                     	;# 
   253  0A1D                     	;# 
   254  0A1D                     	;# 
   255  0A1E                     	;# 
   256  0A1E                     	;# 
   257  0A1F                     	;# 
   258  0A1F                     	;# 
   259  0A1F                     	;# 
   260  1E0F                     	;# 
   261  1E10                     	;# 
   262  1E11                     	;# 
   263  1E12                     	;# 
   264  1E13                     	;# 
   265  1E14                     	;# 
   266  1E15                     	;# 
   267  1E16                     	;# 
   268  1E17                     	;# 
   269  1E18                     	;# 
   270  1E19                     	;# 
   271  1E1A                     	;# 
   272  1E1B                     	;# 
   273  1E1C                     	;# 
   274  1E1D                     	;# 
   275  1E1E                     	;# 
   276  1E1F                     	;# 
   277  1E20                     	;# 
   278  1E21                     	;# 
   279  1E22                     	;# 
   280  1E23                     	;# 
   281  1E24                     	;# 
   282  1E25                     	;# 
   283  1E26                     	;# 
   284  1E27                     	;# 
   285  1E28                     	;# 
   286  1E29                     	;# 
   287  1E2A                     	;# 
   288  1E2B                     	;# 
   289  1E2C                     	;# 
   290  1E2D                     	;# 
   291  1E2E                     	;# 
   292  1E2F                     	;# 
   293  1E30                     	;# 
   294  1E31                     	;# 
   295  1E32                     	;# 
   296  1E33                     	;# 
   297  1E34                     	;# 
   298  1E35                     	;# 
   299  1E36                     	;# 
   300  1E37                     	;# 
   301  1E8F                     	;# 
   302  1E90                     	;# 
   303  1E91                     	;# 
   304  1E92                     	;# 
   305  1E93                     	;# 
   306  1E9C                     	;# 
   307  1EA1                     	;# 
   308  1EA2                     	;# 
   309  1EB1                     	;# 
   310  1EBB                     	;# 
   311  1EBC                     	;# 
   312  1EBD                     	;# 
   313  1EBE                     	;# 
   314  1EC3                     	;# 
   315  1EC5                     	;# 
   316  1EC6                     	;# 
   317  1EC7                     	;# 
   318  1ECB                     	;# 
   319  1ECC                     	;# 
   320  1ECD                     	;# 
   321  1ECE                     	;# 
   322  1F10                     	;# 
   323  1F11                     	;# 
   324  1F12                     	;# 
   325  1F13                     	;# 
   326  1F14                     	;# 
   327  1F15                     	;# 
   328  1F20                     	;# 
   329  1F21                     	;# 
   330  1F22                     	;# 
   331  1F23                     	;# 
   332  1F24                     	;# 
   333  1F25                     	;# 
   334  1F38                     	;# 
   335  1F39                     	;# 
   336  1F3A                     	;# 
   337  1F3B                     	;# 
   338  1F3C                     	;# 
   339  1F3D                     	;# 
   340  1F3E                     	;# 
   341  1F3F                     	;# 
   342  1F4E                     	;# 
   343  1F4F                     	;# 
   344  1F50                     	;# 
   345  1F51                     	;# 
   346  1F52                     	;# 
   347  1F53                     	;# 
   348  1F54                     	;# 
   349  1F55                     	;# 
   350  1FE4                     	;# 
   351  1FE5                     	;# 
   352  1FE6                     	;# 
   353  1FE7                     	;# 
   354  1FE8                     	;# 
   355  1FE8                     	;# 
   356  1FE9                     	;# 
   357  1FEA                     	;# 
   358  1FEA                     	;# 
   359  1FEB                     	;# 
   360  1FED                     	;# 
   361  1FEE                     	;# 
   362  1FEF                     	;# 
   363  0000                     	;# 
   364  0001                     	;# 
   365  0002                     	;# 
   366  0003                     	;# 
   367  0004                     	;# 
   368  0005                     	;# 
   369  0006                     	;# 
   370  0007                     	;# 
   371  0008                     	;# 
   372  0009                     	;# 
   373  000A                     	;# 
   374  000B                     	;# 
   375  000C                     	;# 
   376  000E                     	;# 
   377  0012                     	;# 
   378  0014                     	;# 
   379  0018                     	;# 
   380  001A                     	;# 
   381  009B                     	;# 
   382  009B                     	;# 
   383  009C                     	;# 
   384  009D                     	;# 
   385  009E                     	;# 
   386  009F                     	;# 
   387  0119                     	;# 
   388  0119                     	;# 
   389  0119                     	;# 
   390  011A                     	;# 
   391  011A                     	;# 
   392  011A                     	;# 
   393  011B                     	;# 
   394  011B                     	;# 
   395  011B                     	;# 
   396  011B                     	;# 
   397  011B                     	;# 
   398  011C                     	;# 
   399  011C                     	;# 
   400  011C                     	;# 
   401  011D                     	;# 
   402  011D                     	;# 
   403  011D                     	;# 
   404  011E                     	;# 
   405  011E                     	;# 
   406  011E                     	;# 
   407  011F                     	;# 
   408  011F                     	;# 
   409  011F                     	;# 
   410  011F                     	;# 
   411  011F                     	;# 
   412  018C                     	;# 
   413  018D                     	;# 
   414  018E                     	;# 
   415  018F                     	;# 
   416  0190                     	;# 
   417  0191                     	;# 
   418  0192                     	;# 
   419  020C                     	;# 
   420  020C                     	;# 
   421  020D                     	;# 
   422  020E                     	;# 
   423  020F                     	;# 
   424  020F                     	;# 
   425  0210                     	;# 
   426  0210                     	;# 
   427  0211                     	;# 
   428  0211                     	;# 
   429  028C                     	;# 
   430  028C                     	;# 
   431  028D                     	;# 
   432  028D                     	;# 
   433  028E                     	;# 
   434  028F                     	;# 
   435  0290                     	;# 
   436  0291                     	;# 
   437  030C                     	;# 
   438  030C                     	;# 
   439  030D                     	;# 
   440  030E                     	;# 
   441  030F                     	;# 
   442  0310                     	;# 
   443  0310                     	;# 
   444  0311                     	;# 
   445  0312                     	;# 
   446  0313                     	;# 
   447  0314                     	;# 
   448  0315                     	;# 
   449  0316                     	;# 
   450  0318                     	;# 
   451  0319                     	;# 
   452  031A                     	;# 
   453  031C                     	;# 
   454  031D                     	;# 
   455  031E                     	;# 
   456  038C                     	;# 
   457  038D                     	;# 
   458  038E                     	;# 
   459  058C                     	;# 
   460  058C                     	;# 
   461  058D                     	;# 
   462  058E                     	;# 
   463  058F                     	;# 
   464  058F                     	;# 
   465  0590                     	;# 
   466  0591                     	;# 
   467  0592                     	;# 
   468  0593                     	;# 
   469  059C                     	;# 
   470  059C                     	;# 
   471  059D                     	;# 
   472  059D                     	;# 
   473  059E                     	;# 
   474  059F                     	;# 
   475  060C                     	;# 
   476  060D                     	;# 
   477  060E                     	;# 
   478  060F                     	;# 
   479  0610                     	;# 
   480  0611                     	;# 
   481  0612                     	;# 
   482  0613                     	;# 
   483  0614                     	;# 
   484  070C                     	;# 
   485  070D                     	;# 
   486  070E                     	;# 
   487  070F                     	;# 
   488  0710                     	;# 
   489  0711                     	;# 
   490  0712                     	;# 
   491  0713                     	;# 
   492  0716                     	;# 
   493  0717                     	;# 
   494  0718                     	;# 
   495  0719                     	;# 
   496  071A                     	;# 
   497  071B                     	;# 
   498  071C                     	;# 
   499  071D                     	;# 
   500  0796                     	;# 
   501  0797                     	;# 
   502  0798                     	;# 
   503  0799                     	;# 
   504  079A                     	;# 
   505  079B                     	;# 
   506  080C                     	;# 
   507  080D                     	;# 
   508  080E                     	;# 
   509  080F                     	;# 
   510  0810                     	;# 
   511  0811                     	;# 
   512  0812                     	;# 
   513  0813                     	;# 
   514  0814                     	;# 
   515  081A                     	;# 
   516  081A                     	;# 
   517  081B                     	;# 
   518  081C                     	;# 
   519  081C                     	;# 
   520  081D                     	;# 
   521  081E                     	;# 
   522  081F                     	;# 
   523  088C                     	;# 
   524  088D                     	;# 
   525  088E                     	;# 
   526  088F                     	;# 
   527  0890                     	;# 
   528  0891                     	;# 
   529  0892                     	;# 
   530  0893                     	;# 
   531  0895                     	;# 
   532  0896                     	;# 
   533  090C                     	;# 
   534  090E                     	;# 
   535  090F                     	;# 
   536  091F                     	;# 
   537  098F                     	;# 
   538  098F                     	;# 
   539  0990                     	;# 
   540  0991                     	;# 
   541  0992                     	;# 
   542  0993                     	;# 
   543  0994                     	;# 
   544  0995                     	;# 
   545  0996                     	;# 
   546  0997                     	;# 
   547  0A19                     	;# 
   548  0A19                     	;# 
   549  0A1A                     	;# 
   550  0A1A                     	;# 
   551  0A1B                     	;# 
   552  0A1B                     	;# 
   553  0A1B                     	;# 
   554  0A1C                     	;# 
   555  0A1C                     	;# 
   556  0A1D                     	;# 
   557  0A1D                     	;# 
   558  0A1E                     	;# 
   559  0A1E                     	;# 
   560  0A1F                     	;# 
   561  0A1F                     	;# 
   562  0A1F                     	;# 
   563  1E0F                     	;# 
   564  1E10                     	;# 
   565  1E11                     	;# 
   566  1E12                     	;# 
   567  1E13                     	;# 
   568  1E14                     	;# 
   569  1E15                     	;# 
   570  1E16                     	;# 
   571  1E17                     	;# 
   572  1E18                     	;# 
   573  1E19                     	;# 
   574  1E1A                     	;# 
   575  1E1B                     	;# 
   576  1E1C                     	;# 
   577  1E1D                     	;# 
   578  1E1E                     	;# 
   579  1E1F                     	;# 
   580  1E20                     	;# 
   581  1E21                     	;# 
   582  1E22                     	;# 
   583  1E23                     	;# 
   584  1E24                     	;# 
   585  1E25                     	;# 
   586  1E26                     	;# 
   587  1E27                     	;# 
   588  1E28                     	;# 
   589  1E29                     	;# 
   590  1E2A                     	;# 
   591  1E2B                     	;# 
   592  1E2C                     	;# 
   593  1E2D                     	;# 
   594  1E2E                     	;# 
   595  1E2F                     	;# 
   596  1E30                     	;# 
   597  1E31                     	;# 
   598  1E32                     	;# 
   599  1E33                     	;# 
   600  1E34                     	;# 
   601  1E35                     	;# 
   602  1E36                     	;# 
   603  1E37                     	;# 
   604  1E8F                     	;# 
   605  1E90                     	;# 
   606  1E91                     	;# 
   607  1E92                     	;# 
   608  1E93                     	;# 
   609  1E9C                     	;# 
   610  1EA1                     	;# 
   611  1EA2                     	;# 
   612  1EB1                     	;# 
   613  1EBB                     	;# 
   614  1EBC                     	;# 
   615  1EBD                     	;# 
   616  1EBE                     	;# 
   617  1EC3                     	;# 
   618  1EC5                     	;# 
   619  1EC6                     	;# 
   620  1EC7                     	;# 
   621  1ECB                     	;# 
   622  1ECC                     	;# 
   623  1ECD                     	;# 
   624  1ECE                     	;# 
   625  1F10                     	;# 
   626  1F11                     	;# 
   627  1F12                     	;# 
   628  1F13                     	;# 
   629  1F14                     	;# 
   630  1F15                     	;# 
   631  1F20                     	;# 
   632  1F21                     	;# 
   633  1F22                     	;# 
   634  1F23                     	;# 
   635  1F24                     	;# 
   636  1F25                     	;# 
   637  1F38                     	;# 
   638  1F39                     	;# 
   639  1F3A                     	;# 
   640  1F3B                     	;# 
   641  1F3C                     	;# 
   642  1F3D                     	;# 
   643  1F3E                     	;# 
   644  1F3F                     	;# 
   645  1F4E                     	;# 
   646  1F4F                     	;# 
   647  1F50                     	;# 
   648  1F51                     	;# 
   649  1F52                     	;# 
   650  1F53                     	;# 
   651  1F54                     	;# 
   652  1F55                     	;# 
   653  1FE4                     	;# 
   654  1FE5                     	;# 
   655  1FE6                     	;# 
   656  1FE7                     	;# 
   657  1FE8                     	;# 
   658  1FE8                     	;# 
   659  1FE9                     	;# 
   660  1FEA                     	;# 
   661  1FEA                     	;# 
   662  1FEB                     	;# 
   663  1FED                     	;# 
   664  1FEE                     	;# 
   665  1FEF                     	;# 
   666  0000                     	;# 
   667  0001                     	;# 
   668  0002                     	;# 
   669  0003                     	;# 
   670  0004                     	;# 
   671  0005                     	;# 
   672  0006                     	;# 
   673  0007                     	;# 
   674  0008                     	;# 
   675  0009                     	;# 
   676  000A                     	;# 
   677  000B                     	;# 
   678  000C                     	;# 
   679  000E                     	;# 
   680  0012                     	;# 
   681  0014                     	;# 
   682  0018                     	;# 
   683  001A                     	;# 
   684  009B                     	;# 
   685  009B                     	;# 
   686  009C                     	;# 
   687  009D                     	;# 
   688  009E                     	;# 
   689  009F                     	;# 
   690  0119                     	;# 
   691  0119                     	;# 
   692  0119                     	;# 
   693  011A                     	;# 
   694  011A                     	;# 
   695  011A                     	;# 
   696  011B                     	;# 
   697  011B                     	;# 
   698  011B                     	;# 
   699  011B                     	;# 
   700  011B                     	;# 
   701  011C                     	;# 
   702  011C                     	;# 
   703  011C                     	;# 
   704  011D                     	;# 
   705  011D                     	;# 
   706  011D                     	;# 
   707  011E                     	;# 
   708  011E                     	;# 
   709  011E                     	;# 
   710  011F                     	;# 
   711  011F                     	;# 
   712  011F                     	;# 
   713  011F                     	;# 
   714  011F                     	;# 
   715  018C                     	;# 
   716  018D                     	;# 
   717  018E                     	;# 
   718  018F                     	;# 
   719  0190                     	;# 
   720  0191                     	;# 
   721  0192                     	;# 
   722  020C                     	;# 
   723  020C                     	;# 
   724  020D                     	;# 
   725  020E                     	;# 
   726  020F                     	;# 
   727  020F                     	;# 
   728  0210                     	;# 
   729  0210                     	;# 
   730  0211                     	;# 
   731  0211                     	;# 
   732  028C                     	;# 
   733  028C                     	;# 
   734  028D                     	;# 
   735  028D                     	;# 
   736  028E                     	;# 
   737  028F                     	;# 
   738  0290                     	;# 
   739  0291                     	;# 
   740  030C                     	;# 
   741  030C                     	;# 
   742  030D                     	;# 
   743  030E                     	;# 
   744  030F                     	;# 
   745  0310                     	;# 
   746  0310                     	;# 
   747  0311                     	;# 
   748  0312                     	;# 
   749  0313                     	;# 
   750  0314                     	;# 
   751  0315                     	;# 
   752  0316                     	;# 
   753  0318                     	;# 
   754  0319                     	;# 
   755  031A                     	;# 
   756  031C                     	;# 
   757  031D                     	;# 
   758  031E                     	;# 
   759  038C                     	;# 
   760  038D                     	;# 
   761  038E                     	;# 
   762  058C                     	;# 
   763  058C                     	;# 
   764  058D                     	;# 
   765  058E                     	;# 
   766  058F                     	;# 
   767  058F                     	;# 
   768  0590                     	;# 
   769  0591                     	;# 
   770  0592                     	;# 
   771  0593                     	;# 
   772  059C                     	;# 
   773  059C                     	;# 
   774  059D                     	;# 
   775  059D                     	;# 
   776  059E                     	;# 
   777  059F                     	;# 
   778  060C                     	;# 
   779  060D                     	;# 
   780  060E                     	;# 
   781  060F                     	;# 
   782  0610                     	;# 
   783  0611                     	;# 
   784  0612                     	;# 
   785  0613                     	;# 
   786  0614                     	;# 
   787  070C                     	;# 
   788  070D                     	;# 
   789  070E                     	;# 
   790  070F                     	;# 
   791  0710                     	;# 
   792  0711                     	;# 
   793  0712                     	;# 
   794  0713                     	;# 
   795  0716                     	;# 
   796  0717                     	;# 
   797  0718                     	;# 
   798  0719                     	;# 
   799  071A                     	;# 
   800  071B                     	;# 
   801  071C                     	;# 
   802  071D                     	;# 
   803  0796                     	;# 
   804  0797                     	;# 
   805  0798                     	;# 
   806  0799                     	;# 
   807  079A                     	;# 
   808  079B                     	;# 
   809  080C                     	;# 
   810  080D                     	;# 
   811  080E                     	;# 
   812  080F                     	;# 
   813  0810                     	;# 
   814  0811                     	;# 
   815  0812                     	;# 
   816  0813                     	;# 
   817  0814                     	;# 
   818  081A                     	;# 
   819  081A                     	;# 
   820  081B                     	;# 
   821  081C                     	;# 
   822  081C                     	;# 
   823  081D                     	;# 
   824  081E                     	;# 
   825  081F                     	;# 
   826  088C                     	;# 
   827  088D                     	;# 
   828  088E                     	;# 
   829  088F                     	;# 
   830  0890                     	;# 
   831  0891                     	;# 
   832  0892                     	;# 
   833  0893                     	;# 
   834  0895                     	;# 
   835  0896                     	;# 
   836  090C                     	;# 
   837  090E                     	;# 
   838  090F                     	;# 
   839  091F                     	;# 
   840  098F                     	;# 
   841  098F                     	;# 
   842  0990                     	;# 
   843  0991                     	;# 
   844  0992                     	;# 
   845  0993                     	;# 
   846  0994                     	;# 
   847  0995                     	;# 
   848  0996                     	;# 
   849  0997                     	;# 
   850  0A19                     	;# 
   851  0A19                     	;# 
   852  0A1A                     	;# 
   853  0A1A                     	;# 
   854  0A1B                     	;# 
   855  0A1B                     	;# 
   856  0A1B                     	;# 
   857  0A1C                     	;# 
   858  0A1C                     	;# 
   859  0A1D                     	;# 
   860  0A1D                     	;# 
   861  0A1E                     	;# 
   862  0A1E                     	;# 
   863  0A1F                     	;# 
   864  0A1F                     	;# 
   865  0A1F                     	;# 
   866  1E0F                     	;# 
   867  1E10                     	;# 
   868  1E11                     	;# 
   869  1E12                     	;# 
   870  1E13                     	;# 
   871  1E14                     	;# 
   872  1E15                     	;# 
   873  1E16                     	;# 
   874  1E17                     	;# 
   875  1E18                     	;# 
   876  1E19                     	;# 
   877  1E1A                     	;# 
   878  1E1B                     	;# 
   879  1E1C                     	;# 
   880  1E1D                     	;# 
   881  1E1E                     	;# 
   882  1E1F                     	;# 
   883  1E20                     	;# 
   884  1E21                     	;# 
   885  1E22                     	;# 
   886  1E23                     	;# 
   887  1E24                     	;# 
   888  1E25                     	;# 
   889  1E26                     	;# 
   890  1E27                     	;# 
   891  1E28                     	;# 
   892  1E29                     	;# 
   893  1E2A                     	;# 
   894  1E2B                     	;# 
   895  1E2C                     	;# 
   896  1E2D                     	;# 
   897  1E2E                     	;# 
   898  1E2F                     	;# 
   899  1E30                     	;# 
   900  1E31                     	;# 
   901  1E32                     	;# 
   902  1E33                     	;# 
   903  1E34                     	;# 
   904  1E35                     	;# 
   905  1E36                     	;# 
   906  1E37                     	;# 
   907  1E8F                     	;# 
   908  1E90                     	;# 
   909  1E91                     	;# 
   910  1E92                     	;# 
   911  1E93                     	;# 
   912  1E9C                     	;# 
   913  1EA1                     	;# 
   914  1EA2                     	;# 
   915  1EB1                     	;# 
   916  1EBB                     	;# 
   917  1EBC                     	;# 
   918  1EBD                     	;# 
   919  1EBE                     	;# 
   920  1EC3                     	;# 
   921  1EC5                     	;# 
   922  1EC6                     	;# 
   923  1EC7                     	;# 
   924  1ECB                     	;# 
   925  1ECC                     	;# 
   926  1ECD                     	;# 
   927  1ECE                     	;# 
   928  1F10                     	;# 
   929  1F11                     	;# 
   930  1F12                     	;# 
   931  1F13                     	;# 
   932  1F14                     	;# 
   933  1F15                     	;# 
   934  1F20                     	;# 
   935  1F21                     	;# 
   936  1F22                     	;# 
   937  1F23                     	;# 
   938  1F24                     	;# 
   939  1F25                     	;# 
   940  1F38                     	;# 
   941  1F39                     	;# 
   942  1F3A                     	;# 
   943  1F3B                     	;# 
   944  1F3C                     	;# 
   945  1F3D                     	;# 
   946  1F3E                     	;# 
   947  1F3F                     	;# 
   948  1F4E                     	;# 
   949  1F4F                     	;# 
   950  1F50                     	;# 
   951  1F51                     	;# 
   952  1F52                     	;# 
   953  1F53                     	;# 
   954  1F54                     	;# 
   955  1F55                     	;# 
   956  1FE4                     	;# 
   957  1FE5                     	;# 
   958  1FE6                     	;# 
   959  1FE7                     	;# 
   960  1FE8                     	;# 
   961  1FE8                     	;# 
   962  1FE9                     	;# 
   963  1FEA                     	;# 
   964  1FEA                     	;# 
   965  1FEB                     	;# 
   966  1FED                     	;# 
   967  1FEE                     	;# 
   968  1FEF                     	;# 
   969                           
   970                           	psect	idataBANK0
   971  0386                     __pidataBANK0:	
   972                           
   973                           ;initializer for _randx
   974  0386  3401               	retlw	1
   975  0387  3400               	retlw	0
   976  0388  3400               	retlw	0
   977  0389  3400               	retlw	0
   978  0018                     _LATAbits	set	24
   979  001A                     _LATCbits	set	26
   980  000E                     _PORTCbits	set	14
   981  0014                     _TRISC	set	20
   982  0012                     _TRISA	set	18
   983  001A                     _LATC	set	26
   984  0018                     _LATA	set	24
   985  0892                     _OSCTUNE	set	2194
   986  0890                     _OSCSTAT	set	2192
   987  0893                     _OSCFRQ	set	2195
   988  0891                     _OSCEN	set	2193
   989  088F                     _OSCCON3	set	2191
   990  088D                     _OSCCON1	set	2189
   991  1F50                     _ODCONC	set	8016
   992  1F3A                     _ODCONA	set	7994
   993  1F4F                     _WPUC	set	8015
   994  1F39                     _WPUA	set	7993
   995  1F38                     _ANSELA	set	7992
   996  1F4E                     _ANSELC	set	8014
   997                           
   998                           ; #config settings
   999  0000                     
  1000                           	psect	cinit
  1001  07EE                     start_initialization:	
  1002  07EE                     __initialization:	
  1003                           
  1004                           ; Initialize objects allocated to BANK0
  1005  07EE  3183  2386  3187   	fcall	__pidataBANK0	;fetch initializer
  1006  07F1  00BD               	movwf	__pdataBANK0& (0+127)
  1007  07F2  3183  2387  3187   	fcall	__pidataBANK0+1	;fetch initializer
  1008  07F5  00BE               	movwf	(__pdataBANK0+1)& (0+127)
  1009  07F6  3183  2388  3187   	fcall	__pidataBANK0+2	;fetch initializer
  1010  07F9  00BF               	movwf	(__pdataBANK0+2)& (0+127)
  1011  07FA  3183  2389         	fcall	__pidataBANK0+3	;fetch initializer
  1012  07FC  00C0               	movwf	(__pdataBANK0+3)& (0+127)
  1013  07FD                     end_of_initialization:	
  1014                           ;End of C runtime variable initialization code
  1015                           
  1016  07FD                     __end_of__initialization:	
  1017  07FD  0140               	movlb	0
  1018  07FE  3186  2E0D         	ljmp	_main	;jump to C main() function
  1019                           
  1020                           	psect	dataBANK0
  1021  003D                     __pdataBANK0:	
  1022  003D                     _randx:	
  1023  003D                     	ds	4
  1024                           
  1025                           	psect	cstackCOMMON
  1026  0070                     __pcstackCOMMON:	
  1027  0070                     ?_OSCILLATOR_Initialize:	
  1028  0070                     ??_OSCILLATOR_Initialize:	
  1029                           ; 1 bytes @ 0x0
  1030                           
  1031  0070                     ?_delay_ms:	
  1032                           ; 1 bytes @ 0x0
  1033                           
  1034  0070                     ?_delay:	
  1035                           ; 1 bytes @ 0x0
  1036                           
  1037  0070                     ?_PIN_MANAGER_Initialize:	
  1038                           ; 1 bytes @ 0x0
  1039                           
  1040  0070                     ??_PIN_MANAGER_Initialize:	
  1041                           ; 1 bytes @ 0x0
  1042                           
  1043  0070                     ?_SYSTEM_Initialize:	
  1044                           ; 1 bytes @ 0x0
  1045                           
  1046  0070                     ??_SYSTEM_Initialize:	
  1047                           ; 1 bytes @ 0x0
  1048                           
  1049  0070                     ?_main:	
  1050                           ; 1 bytes @ 0x0
  1051                           
  1052  0070                     ?___lmul:	
  1053                           ; 1 bytes @ 0x0
  1054                           
  1055  0070                     delay_ms@milliseconds:	
  1056                           ; 4 bytes @ 0x0
  1057                           
  1058  0070                     ___lmul@multiplier:	
  1059                           ; 2 bytes @ 0x0
  1060                           
  1061                           
  1062                           ; 4 bytes @ 0x0
  1063  0070                     	ds	2
  1064  0072                     ??_delay_ms:	
  1065  0072                     ??_light:	
  1066                           ; 1 bytes @ 0x2
  1067                           
  1068                           
  1069                           ; 1 bytes @ 0x2
  1070  0072                     	ds	2
  1071  0074                     ___lmul@multiplicand:	
  1072                           
  1073                           ; 4 bytes @ 0x4
  1074  0074                     	ds	4
  1075  0078                     ??___lmul:	
  1076  0078                     ___lmul@product:	
  1077                           ; 1 bytes @ 0x8
  1078                           
  1079                           
  1080                           ; 4 bytes @ 0x8
  1081  0078                     	ds	4
  1082  007C                     ?_rand:	
  1083                           
  1084                           ; 2 bytes @ 0xC
  1085  007C                     	ds	2
  1086                           
  1087                           	psect	cstackBANK0
  1088  0020                     __pcstackBANK0:	
  1089  0020                     ??_rand:	
  1090  0020                     ?_light:	
  1091                           ; 1 bytes @ 0x0
  1092                           
  1093  0020                     light@l7:	
  1094                           ; 1 bytes @ 0x0
  1095                           
  1096                           
  1097                           ; 2 bytes @ 0x0
  1098  0020                     	ds	2
  1099  0022                     light@l6:	
  1100                           
  1101                           ; 2 bytes @ 0x2
  1102  0022                     	ds	2
  1103  0024                     light@l5:	
  1104                           
  1105                           ; 2 bytes @ 0x4
  1106  0024                     	ds	1
  1107  0025                     ?___awmod:	
  1108  0025                     ___awmod@divisor:	
  1109                           ; 2 bytes @ 0x5
  1110                           
  1111                           
  1112                           ; 2 bytes @ 0x5
  1113  0025                     	ds	1
  1114  0026                     light@l4:	
  1115                           
  1116                           ; 2 bytes @ 0x6
  1117  0026                     	ds	1
  1118  0027                     ___awmod@dividend:	
  1119                           
  1120                           ; 2 bytes @ 0x7
  1121  0027                     	ds	1
  1122  0028                     light@l3:	
  1123                           
  1124                           ; 2 bytes @ 0x8
  1125  0028                     	ds	1
  1126  0029                     ??___awmod:	
  1127                           
  1128                           ; 1 bytes @ 0x9
  1129  0029                     	ds	1
  1130  002A                     ___awmod@counter:	
  1131  002A                     light@l2:	
  1132                           ; 1 bytes @ 0xA
  1133                           
  1134                           
  1135                           ; 2 bytes @ 0xA
  1136  002A                     	ds	1
  1137  002B                     ___awmod@sign:	
  1138                           
  1139                           ; 1 bytes @ 0xB
  1140  002B                     	ds	1
  1141  002C                     ??_delay:	
  1142  002C                     light@l1:	
  1143                           ; 1 bytes @ 0xC
  1144                           
  1145                           
  1146                           ; 2 bytes @ 0xC
  1147  002C                     	ds	1
  1148  002D                     delay@r:	
  1149                           
  1150                           ; 2 bytes @ 0xD
  1151  002D                     	ds	1
  1152  002E                     light@d:	
  1153                           
  1154                           ; 2 bytes @ 0xE
  1155  002E                     	ds	1
  1156  002F                     delay@i:	
  1157                           
  1158                           ; 2 bytes @ 0xF
  1159  002F                     	ds	2
  1160  0031                     delay@j:	
  1161                           
  1162                           ; 2 bytes @ 0x11
  1163  0031                     	ds	2
  1164  0033                     ??_main:	
  1165                           
  1166                           ; 1 bytes @ 0x13
  1167  0033                     	ds	1
  1168  0034                     main@dotDelay:	
  1169                           
  1170                           ; 2 bytes @ 0x14
  1171  0034                     	ds	2
  1172  0036                     main@spaceDelay:	
  1173                           
  1174                           ; 2 bytes @ 0x16
  1175  0036                     	ds	2
  1176  0038                     main@randomnumber:	
  1177                           
  1178                           ; 2 bytes @ 0x18
  1179  0038                     	ds	2
  1180  003A                     main@button_pushed:	
  1181                           
  1182                           ; 2 bytes @ 0x1A
  1183  003A                     	ds	2
  1184  003C                     main@state:	
  1185                           
  1186                           ; 1 bytes @ 0x1C
  1187  003C                     	ds	1
  1188                           
  1189                           	psect	maintext
  1190  060D                     __pmaintext:	
  1191 ;;
  1192 ;;Main: autosize = 0, tempsize = 1, incstack = 0, save=0
  1193 ;;
  1194 ;; *************** function _main *****************
  1195 ;; Defined at:
  1196 ;;		line 11 in file "main.c"
  1197 ;; Parameters:    Size  Location     Type
  1198 ;;		None
  1199 ;; Auto vars:     Size  Location     Type
  1200 ;;  button_pushe    2   26[BANK0 ] int 
  1201 ;;  randomnumber    2   24[BANK0 ] int 
  1202 ;;  spaceDelay      2   22[BANK0 ] int 
  1203 ;;  dotDelay        2   20[BANK0 ] int 
  1204 ;;  state           1   28[BANK0 ] enum E7709
  1205 ;; Return value:  Size  Location     Type
  1206 ;;                  1    wreg      void 
  1207 ;; Registers used:
  1208 ;;		wreg, fsr0l, fsr0h, status,2, status,0, pclath, cstack
  1209 ;; Tracked objects:
  1210 ;;		On entry : B3F/0
  1211 ;;		On exit  : 0/0
  1212 ;;		Unchanged: 0/0
  1213 ;; Data sizes:     COMMON   BANK0   BANK1   BANK2   BANK3   BANK4   BANK5   BANK6   BANK7   BANK8   BANK9  BANK10  BANK1
      +1  BANK12
  1214 ;;      Params:         0       0       0       0       0       0       0       0       0       0       0       0       
      +0       0
  1215 ;;      Locals:         0       9       0       0       0       0       0       0       0       0       0       0       
      +0       0
  1216 ;;      Temps:          0       1       0       0       0       0       0       0       0       0       0       0       
      +0       0
  1217 ;;      Totals:         0      10       0       0       0       0       0       0       0       0       0       0       
      +0       0
  1218 ;;Total ram usage:       10 bytes
  1219 ;; Hardware stack levels required when called:    3
  1220 ;; This function calls:
  1221 ;;		_SYSTEM_Initialize
  1222 ;;		___awmod
  1223 ;;		_delay
  1224 ;;		_delay_ms
  1225 ;;		_light
  1226 ;;		_rand
  1227 ;; This function is called by:
  1228 ;;		Startup code after reset
  1229 ;; This function uses a non-reentrant model
  1230 ;;
  1231                           
  1232                           
  1233                           ;psect for function _main
  1234  060D                     _main:	
  1235                           
  1236                           ;main.c: 14: SYSTEM_Initialize();
  1237                           
  1238                           ;incstack = 0
  1239                           ; Regs used in _main: [wreg-fsr0h+status,2+status,0+pclath+cstack]
  1240  060D  3183  238A  3186   	fcall	_SYSTEM_Initialize
  1241                           
  1242                           ;main.c: 16: typedef enum
  1243                           ;main.c: 17: {
  1244                           ;main.c: 18: SLEEP,
  1245                           ;main.c: 19: ON,
  1246                           ;main.c: 20: BLINK_SLOW,
  1247                           ;main.c: 21: BLINK_FAST,
  1248                           ;main.c: 22: RUN,
  1249                           ;main.c: 23: RANDOM,
  1250                           ;main.c: 24: RAILROAD,
  1251                           ;main.c: 25: TAE,
  1252                           ;main.c: 26: RBLINK
  1253                           ;main.c: 27: } state_type;
  1254                           ;main.c: 29: int button_pushed = 0;
  1255  0610  0140               	movlb	0	; select bank0
  1256  0611  01BA               	clrf	main@button_pushed
  1257  0612  01BB               	clrf	main@button_pushed+1
  1258                           
  1259                           ;main.c: 30: state_type state = SLEEP;
  1260  0613  01BC               	clrf	main@state
  1261                           
  1262                           ;main.c: 31: int dotDelay = 6;
  1263  0614  3006               	movlw	6
  1264  0615  00B4               	movwf	main@dotDelay
  1265  0616  3000               	movlw	0
  1266  0617  00B5               	movwf	main@dotDelay+1
  1267                           
  1268                           ;main.c: 32: int spaceDelay = 12;
  1269  0618  300C               	movlw	12
  1270  0619  00B6               	movwf	main@spaceDelay
  1271  061A  3000               	movlw	0
  1272  061B  00B7               	movwf	main@spaceDelay+1
  1273  061C                     l71:	
  1274                           ;main.c: 33: int randomnumber;
  1275                           ;main.c: 51: while (1)
  1276                           
  1277                           
  1278                           ;main.c: 52: {
  1279                           ;main.c: 54: randomnumber = 1+ rand() % 7;
  1280  061C  3007               	movlw	7
  1281  061D  0140               	movlb	0	; select bank0
  1282  061E  00A5               	movwf	___awmod@divisor
  1283  061F  3000               	movlw	0
  1284  0620  00A6               	movwf	___awmod@divisor+1
  1285  0621  3184  2421  3186   	fcall	_rand
  1286  0624  087D               	movf	?_rand+1,w
  1287  0625  0140               	movlb	0	; select bank0
  1288  0626  00A8               	movwf	___awmod@dividend+1
  1289  0627  087C               	movf	?_rand,w
  1290  0628  00A7               	movwf	___awmod@dividend
  1291  0629  3184  245D  3186   	fcall	___awmod
  1292  062C  0140               	movlb	0	; select bank0
  1293  062D  0825               	movf	?___awmod,w
  1294  062E  3E01               	addlw	1
  1295  062F  00B8               	movwf	main@randomnumber
  1296  0630  3000               	movlw	0
  1297  0631  3D26               	addwfc	?___awmod+1,w
  1298  0632  00B9               	movwf	main@randomnumber+1
  1299                           
  1300                           ;main.c: 55: if(PORTCbits.RC4==0)
  1301  0633  1A0E               	btfsc	14,4	;volatile
  1302  0634  2E53               	goto	l1299
  1303                           
  1304                           ;main.c: 56: {
  1305                           ;main.c: 57: delay_ms(5);
  1306  0635  3005               	movlw	5
  1307  0636  00F0               	movwf	delay_ms@milliseconds
  1308  0637  3000               	movlw	0
  1309  0638  00F1               	movwf	delay_ms@milliseconds+1
  1310  0639  3183  239A  3186   	fcall	_delay_ms
  1311  063C                     l1297:	
  1312                           ;main.c: 58: while (PORTCbits.RC4==0)
  1313                           
  1314  063C  0140               	movlb	0	; select bank0
  1315  063D  1A0E               	btfsc	14,4	;volatile
  1316  063E  2E4C               	goto	l90
  1317                           
  1318                           ;main.c: 59: {
  1319                           ;main.c: 60: do { LATCbits.LATC3 = 1; } while(0);
  1320  063F  0140               	movlb	0	; select bank0
  1321  0640  159A               	bsf	26,3	;volatile
  1322                           
  1323                           ;main.c: 61: do { LATCbits.LATC2 = 1; } while(0);
  1324  0641  151A               	bsf	26,2	;volatile
  1325                           
  1326                           ;main.c: 62: do { LATCbits.LATC1 = 1; } while(0);
  1327  0642  149A               	bsf	26,1	;volatile
  1328                           
  1329                           ;main.c: 63: do { LATCbits.LATC0 = 1; } while(0);
  1330  0643  141A               	bsf	26,0	;volatile
  1331                           
  1332                           ;main.c: 64: do { LATAbits.LATA2 = 1; } while(0);
  1333  0644  1518               	bsf	24,2	;volatile
  1334                           
  1335                           ;main.c: 65: do { LATAbits.LATA1 = 1; } while(0);
  1336  0645  1498               	bsf	24,1	;volatile
  1337                           
  1338                           ;main.c: 66: do { LATAbits.LATA0 = 1; } while(0);
  1339  0646  1418               	bsf	24,0	;volatile
  1340                           
  1341                           ;main.c: 67: button_pushed=1;
  1342  0647  3001               	movlw	1
  1343  0648  00BA               	movwf	main@button_pushed
  1344  0649  3000               	movlw	0
  1345  064A  00BB               	movwf	main@button_pushed+1
  1346  064B  2E3C               	goto	l1297
  1347  064C                     l90:	
  1348                           ;main.c: 68: }
  1349                           ;main.c: 69: do { LATCbits.LATC3 = 0; } while(0);
  1350                           
  1351  064C  119A               	bcf	26,3	;volatile
  1352                           
  1353                           ;main.c: 70: do { LATCbits.LATC2 = 0; } while(0);
  1354  064D  111A               	bcf	26,2	;volatile
  1355                           
  1356                           ;main.c: 71: do { LATCbits.LATC1 = 0; } while(0);
  1357  064E  109A               	bcf	26,1	;volatile
  1358                           
  1359                           ;main.c: 72: do { LATCbits.LATC0 = 0; } while(0);
  1360  064F  101A               	bcf	26,0	;volatile
  1361                           
  1362                           ;main.c: 73: do { LATAbits.LATA2 = 0; } while(0);
  1363  0650  1118               	bcf	24,2	;volatile
  1364                           
  1365                           ;main.c: 74: do { LATAbits.LATA1 = 0; } while(0);
  1366  0651  1098               	bcf	24,1	;volatile
  1367                           
  1368                           ;main.c: 75: do { LATAbits.LATA0 = 0; } while(0);
  1369  0652  1018               	bcf	24,0	;volatile
  1370  0653                     l1299:	
  1371                           
  1372                           ;main.c: 76: }
  1373                           ;main.c: 78: if (button_pushed)
  1374  0653  083A               	movf	main@button_pushed,w
  1375  0654  043B               	iorwf	main@button_pushed+1,w
  1376  0655  1D03               	btfss	3,2
  1377  0656  2E6F               	goto	l1321
  1378  0657                     L7:	
  1379  0657  318F  2FF4         	goto	l1477
  1380  0659                     l106:	
  1381                           ;main.c: 81: {
  1382                           ;main.c: 82: case SLEEP:
  1383                           
  1384                           ;main.c: 79: {
  1385                           ;main.c: 80: switch (state)
  1386                           
  1387                           
  1388                           ;main.c: 83: state = ON;
  1389  0659  01BC               	clrf	main@state
  1390  065A  0ABC               	incf	main@state,f
  1391                           
  1392                           ;main.c: 84: break;
  1393  065B  2E79               	goto	l1323
  1394  065C                     l1303:	
  1395                           ;main.c: 85: case ON:
  1396                           
  1397                           
  1398                           ;main.c: 86: state = BLINK_SLOW;
  1399  065C  3002               	movlw	2
  1400  065D  2E69               	goto	L6
  1401  065E                     l1305:	
  1402                           ;main.c: 88: case BLINK_SLOW:
  1403                           
  1404                           ;main.c: 87: break;
  1405                           
  1406                           
  1407                           ;main.c: 89: state = BLINK_FAST;
  1408  065E  3003               	movlw	3
  1409  065F  2E69               	goto	L6
  1410  0660                     l1307:	
  1411                           ;main.c: 91: case BLINK_FAST:
  1412                           
  1413                           ;main.c: 90: break;
  1414                           
  1415                           
  1416                           ;main.c: 92: state = RUN;
  1417  0660  3004               	movlw	4
  1418  0661  2E69               	goto	L6
  1419  0662                     l1309:	
  1420                           ;main.c: 94: case RUN:
  1421                           
  1422                           ;main.c: 93: break;
  1423                           
  1424                           
  1425                           ;main.c: 95: state = RANDOM;
  1426  0662  3005               	movlw	5
  1427  0663  2E69               	goto	L6
  1428  0664                     l1311:	
  1429                           ;main.c: 97: case RANDOM:
  1430                           
  1431                           ;main.c: 96: break;
  1432                           
  1433                           
  1434                           ;main.c: 98: state = RAILROAD;
  1435  0664  3006               	movlw	6
  1436  0665  2E69               	goto	L6
  1437  0666                     l1313:	
  1438                           ;main.c: 100: case RAILROAD:
  1439                           
  1440                           ;main.c: 99: break;
  1441                           
  1442                           
  1443                           ;main.c: 101: state = TAE;
  1444  0666  3007               	movlw	7
  1445  0667  2E69               	goto	L6
  1446  0668                     l1315:	
  1447                           ;main.c: 103: case TAE:
  1448                           
  1449                           ;main.c: 102: break;
  1450                           
  1451                           
  1452                           ;main.c: 104: state = RBLINK;
  1453  0668  3008               	movlw	8
  1454  0669                     L6:	
  1455  0669  00B3               	movwf	??_main
  1456  066A  0833               	movf	??_main,w
  1457  066B  00BC               	movwf	main@state
  1458                           
  1459                           ;main.c: 105: break;
  1460  066C  2E79               	goto	l1323
  1461  066D                     l1317:	
  1462                           ;main.c: 106: case RBLINK:
  1463                           
  1464                           
  1465                           ;main.c: 107: state = SLEEP;
  1466  066D  01BC               	clrf	main@state
  1467                           
  1468                           ;main.c: 109: }
  1469                           
  1470                           ;main.c: 108: break;
  1471  066E  2E79               	goto	l1323
  1472  066F                     l1321:	
  1473  066F  083C               	movf	main@state,w
  1474                           
  1475                           ; Switch size 1, requested type "space"
  1476                           ; Number of cases is 9, Range of values is 0 to 8
  1477                           ; switch strategies available:
  1478                           ; Name         Instructions Cycles
  1479                           ; direct_byte           24     6 (fixed)
  1480                           ; simple_byte           28    15 (average)
  1481                           ; jumptable            260     6 (fixed)
  1482                           ;	Chosen strategy is direct_byte
  1483  0670  0084               	movwf	4
  1484  0671  3009               	movlw	9
  1485  0672  0204               	subwf	4,w
  1486  0673  1803               	skipnc
  1487  0674  2E79               	goto	l1323
  1488  0675  3180               	movlp	high S1527
  1489  0676  3504               	lslf	4,w
  1490  0677  3E04               	addlw	low S1527
  1491  0678  0082               	movwf	2
  1492  0679                     l1323:	
  1493                           
  1494                           ;main.c: 110: button_pushed = 0;
  1495  0679  01BA               	clrf	main@button_pushed
  1496  067A  01BB               	clrf	main@button_pushed+1
  1497                           
  1498                           ;main.c: 111: }
  1499                           ;main.c: 113: switch (state)
  1500  067B  2E57               	goto	L7
  1501  067C                     l118:	
  1502                           ;main.c: 116: do { LATCbits.LATC3 = 1; } while(0);
  1503                           
  1504                           ;main.c: 114: {
  1505                           ;main.c: 115: case ON:
  1506                           
  1507  067C  159A               	bsf	26,3	;volatile
  1508                           
  1509                           ;main.c: 117: do { LATCbits.LATC2 = 1; } while(0);
  1510  067D  151A               	bsf	26,2	;volatile
  1511                           
  1512                           ;main.c: 118: do { LATCbits.LATC1 = 1; } while(0);
  1513  067E  149A               	bsf	26,1	;volatile
  1514                           
  1515                           ;main.c: 119: do { LATCbits.LATC0 = 1; } while(0);
  1516  067F  141A               	bsf	26,0	;volatile
  1517                           
  1518                           ;main.c: 120: do { LATAbits.LATA2 = 1; } while(0);
  1519  0680  1518               	bsf	24,2	;volatile
  1520                           
  1521                           ;main.c: 121: do { LATAbits.LATA1 = 1; } while(0);
  1522  0681  1498               	bsf	24,1	;volatile
  1523                           
  1524                           ;main.c: 122: do { LATAbits.LATA0 = 1; } while(0);
  1525  0682  1418               	bsf	24,0	;volatile
  1526                           
  1527                           ;main.c: 123: break;
  1528  0683  2E1C               	goto	l71
  1529  0684                     l1325:	
  1530                           ;main.c: 125: do { LATCbits.LATC3 = ~LATCbits.LATC3; } while(0);
  1531                           
  1532                           ;main.c: 124: case BLINK_SLOW:
  1533                           
  1534  0684  1003               	clrc
  1535  0685  1D9A               	btfss	26,3	;volatile
  1536  0686  1403               	setc
  1537  0687  1C03               	btfss	3,0
  1538  0688  2E8C               	goto	u1130
  1539  0689  0140               	movlb	0	; select bank0
  1540  068A  159A               	bsf	26,3	;volatile
  1541  068B  2E8E               	goto	l136
  1542  068C                     u1130:	
  1543  068C  0140               	movlb	0	; select bank0
  1544  068D  119A               	bcf	26,3	;volatile
  1545  068E                     l136:	
  1546                           ;main.c: 126: do { LATCbits.LATC2 = ~LATCbits.LATC2; } while(0);
  1547                           
  1548  068E  1003               	clrc
  1549  068F  1D1A               	btfss	26,2	;volatile
  1550  0690  1403               	setc
  1551  0691  1C03               	btfss	3,0
  1552  0692  2E96               	goto	u1150
  1553  0693  0140               	movlb	0	; select bank0
  1554  0694  151A               	bsf	26,2	;volatile
  1555  0695  2E98               	goto	l138
  1556  0696                     u1150:	
  1557  0696  0140               	movlb	0	; select bank0
  1558  0697  111A               	bcf	26,2	;volatile
  1559  0698                     l138:	
  1560                           ;main.c: 127: do { LATCbits.LATC1 = ~LATCbits.LATC1; } while(0);
  1561                           
  1562  0698  1003               	clrc
  1563  0699  1C9A               	btfss	26,1	;volatile
  1564  069A  1403               	setc
  1565  069B  1C03               	btfss	3,0
  1566  069C  2EA0               	goto	u1170
  1567  069D  0140               	movlb	0	; select bank0
  1568  069E  149A               	bsf	26,1	;volatile
  1569  069F  2EA2               	goto	l140
  1570  06A0                     u1170:	
  1571  06A0  0140               	movlb	0	; select bank0
  1572  06A1  109A               	bcf	26,1	;volatile
  1573  06A2                     l140:	
  1574                           ;main.c: 128: do { LATCbits.LATC0 = ~LATCbits.LATC0; } while(0);
  1575                           
  1576  06A2  1003               	clrc
  1577  06A3  1C1A               	btfss	26,0	;volatile
  1578  06A4  1403               	setc
  1579  06A5  1C03               	btfss	3,0
  1580  06A6  2EAA               	goto	u1190
  1581  06A7  0140               	movlb	0	; select bank0
  1582  06A8  141A               	bsf	26,0	;volatile
  1583  06A9  2EAC               	goto	l142
  1584  06AA                     u1190:	
  1585  06AA  0140               	movlb	0	; select bank0
  1586  06AB  101A               	bcf	26,0	;volatile
  1587  06AC                     l142:	
  1588                           ;main.c: 129: do { LATAbits.LATA2 = ~LATAbits.LATA2; } while(0);
  1589                           
  1590  06AC  1003               	clrc
  1591  06AD  1D18               	btfss	24,2	;volatile
  1592  06AE  1403               	setc
  1593  06AF  1C03               	btfss	3,0
  1594  06B0  2EB4               	goto	u1210
  1595  06B1  0140               	movlb	0	; select bank0
  1596  06B2  1518               	bsf	24,2	;volatile
  1597  06B3  2EB6               	goto	l144
  1598  06B4                     u1210:	
  1599  06B4  0140               	movlb	0	; select bank0
  1600  06B5  1118               	bcf	24,2	;volatile
  1601  06B6                     l144:	
  1602                           ;main.c: 130: do { LATAbits.LATA1 = ~LATAbits.LATA1; } while(0);
  1603                           
  1604  06B6  1003               	clrc
  1605  06B7  1C98               	btfss	24,1	;volatile
  1606  06B8  1403               	setc
  1607  06B9  1C03               	btfss	3,0
  1608  06BA  2EBE               	goto	u1230
  1609  06BB  0140               	movlb	0	; select bank0
  1610  06BC  1498               	bsf	24,1	;volatile
  1611  06BD  2EC0               	goto	l146
  1612  06BE                     u1230:	
  1613  06BE  0140               	movlb	0	; select bank0
  1614  06BF  1098               	bcf	24,1	;volatile
  1615  06C0                     l146:	
  1616                           ;main.c: 131: do { LATAbits.LATA0 = ~LATAbits.LATA0; } while(0);
  1617                           
  1618  06C0  1003               	clrc
  1619  06C1  1C18               	btfss	24,0	;volatile
  1620  06C2  1403               	setc
  1621  06C3  1C03               	btfss	3,0
  1622  06C4  2EC8               	goto	u1250
  1623  06C5  0140               	movlb	0	; select bank0
  1624  06C6  1418               	bsf	24,0	;volatile
  1625  06C7  2ECA               	goto	l1327
  1626  06C8                     u1250:	
  1627  06C8  0140               	movlb	0	; select bank0
  1628  06C9  1018               	bcf	24,0	;volatile
  1629  06CA                     l1327:	
  1630                           
  1631                           ;main.c: 133: delay_ms(1000);
  1632  06CA  30E8               	movlw	232
  1633  06CB  00F0               	movwf	delay_ms@milliseconds
  1634  06CC  3003               	movlw	3
  1635  06CD  00F1               	movwf	delay_ms@milliseconds+1
  1636  06CE  3183  239A  3186   	fcall	_delay_ms
  1637                           
  1638                           ;main.c: 134: break;
  1639  06D1  2E1C               	goto	l71
  1640  06D2                     l1329:	
  1641                           ;main.c: 136: do { LATCbits.LATC3 = ~LATCbits.LATC3; } while(0);
  1642                           
  1643                           ;main.c: 135: case BLINK_FAST:
  1644                           
  1645  06D2  1003               	clrc
  1646  06D3  0140               	movlb	0	; select bank0
  1647  06D4  1D9A               	btfss	26,3	;volatile
  1648  06D5  1403               	setc
  1649  06D6  1C03               	btfss	3,0
  1650  06D7  2EDB               	goto	u1270
  1651  06D8  0140               	movlb	0	; select bank0
  1652  06D9  159A               	bsf	26,3	;volatile
  1653  06DA  2EDD               	goto	l151
  1654  06DB                     u1270:	
  1655  06DB  0140               	movlb	0	; select bank0
  1656  06DC  119A               	bcf	26,3	;volatile
  1657  06DD                     l151:	
  1658                           ;main.c: 137: do { LATCbits.LATC2 = ~LATCbits.LATC2; } while(0);
  1659                           
  1660  06DD  1003               	clrc
  1661  06DE  1D1A               	btfss	26,2	;volatile
  1662  06DF  1403               	setc
  1663  06E0  1C03               	btfss	3,0
  1664  06E1  2EE5               	goto	u1290
  1665  06E2  0140               	movlb	0	; select bank0
  1666  06E3  151A               	bsf	26,2	;volatile
  1667  06E4  2EE7               	goto	l153
  1668  06E5                     u1290:	
  1669  06E5  0140               	movlb	0	; select bank0
  1670  06E6  111A               	bcf	26,2	;volatile
  1671  06E7                     l153:	
  1672                           ;main.c: 138: do { LATCbits.LATC1 = ~LATCbits.LATC1; } while(0);
  1673                           
  1674  06E7  1003               	clrc
  1675  06E8  1C9A               	btfss	26,1	;volatile
  1676  06E9  1403               	setc
  1677  06EA  1C03               	btfss	3,0
  1678  06EB  2EEF               	goto	u1310
  1679  06EC  0140               	movlb	0	; select bank0
  1680  06ED  149A               	bsf	26,1	;volatile
  1681  06EE  2EF1               	goto	l155
  1682  06EF                     u1310:	
  1683  06EF  0140               	movlb	0	; select bank0
  1684  06F0  109A               	bcf	26,1	;volatile
  1685  06F1                     l155:	
  1686                           ;main.c: 139: do { LATCbits.LATC0 = ~LATCbits.LATC0; } while(0);
  1687                           
  1688  06F1  1003               	clrc
  1689  06F2  1C1A               	btfss	26,0	;volatile
  1690  06F3  1403               	setc
  1691  06F4  1C03               	btfss	3,0
  1692  06F5  2EF9               	goto	u1330
  1693  06F6  0140               	movlb	0	; select bank0
  1694  06F7  141A               	bsf	26,0	;volatile
  1695  06F8  2EFB               	goto	l157
  1696  06F9                     u1330:	
  1697  06F9  0140               	movlb	0	; select bank0
  1698  06FA  101A               	bcf	26,0	;volatile
  1699  06FB                     l157:	
  1700                           ;main.c: 140: do { LATAbits.LATA2 = ~LATAbits.LATA2; } while(0);
  1701                           
  1702  06FB  1003               	clrc
  1703  06FC  1D18               	btfss	24,2	;volatile
  1704  06FD  1403               	setc
  1705  06FE  1C03               	btfss	3,0
  1706  06FF  2F03               	goto	u1350
  1707  0700  0140               	movlb	0	; select bank0
  1708  0701  1518               	bsf	24,2	;volatile
  1709  0702  2F05               	goto	l159
  1710  0703                     u1350:	
  1711  0703  0140               	movlb	0	; select bank0
  1712  0704  1118               	bcf	24,2	;volatile
  1713  0705                     l159:	
  1714                           ;main.c: 141: do { LATAbits.LATA1 = ~LATAbits.LATA1; } while(0);
  1715                           
  1716  0705  1003               	clrc
  1717  0706  1C98               	btfss	24,1	;volatile
  1718  0707  1403               	setc
  1719  0708  1C03               	btfss	3,0
  1720  0709  2F0D               	goto	u1370
  1721  070A  0140               	movlb	0	; select bank0
  1722  070B  1498               	bsf	24,1	;volatile
  1723  070C  2F0F               	goto	l161
  1724  070D                     u1370:	
  1725  070D  0140               	movlb	0	; select bank0
  1726  070E  1098               	bcf	24,1	;volatile
  1727  070F                     l161:	
  1728                           ;main.c: 142: do { LATAbits.LATA0 = ~LATAbits.LATA0; } while(0);
  1729                           
  1730  070F  1003               	clrc
  1731  0710  1C18               	btfss	24,0	;volatile
  1732  0711  1403               	setc
  1733  0712  1C03               	btfss	3,0
  1734  0713  2F17               	goto	u1390
  1735  0714  0140               	movlb	0	; select bank0
  1736  0715  1418               	bsf	24,0	;volatile
  1737  0716  2F19               	goto	l1331
  1738  0717                     u1390:	
  1739  0717  0140               	movlb	0	; select bank0
  1740  0718  1018               	bcf	24,0	;volatile
  1741  0719                     l1331:	
  1742                           
  1743                           ;main.c: 144: delay_ms(100);
  1744  0719  3064               	movlw	100
  1745  071A  00F0               	movwf	delay_ms@milliseconds
  1746  071B  3000               	movlw	0
  1747  071C  00F1               	movwf	delay_ms@milliseconds+1
  1748  071D  3183  239A  3186   	fcall	_delay_ms
  1749                           
  1750                           ;main.c: 145: break;
  1751  0720  2E1C               	goto	l71
  1752  0721                     l164:	
  1753                           ;main.c: 147: do { LATCbits.LATC3 = 1; } while(0);
  1754                           
  1755                           ;main.c: 146: case RUN:
  1756                           
  1757  0721  0140               	movlb	0	; select bank0
  1758  0722  159A               	bsf	26,3	;volatile
  1759                           
  1760                           ;main.c: 148: do { LATCbits.LATC2 = 0; } while(0);
  1761  0723  111A               	bcf	26,2	;volatile
  1762                           
  1763                           ;main.c: 149: do { LATCbits.LATC1 = 0; } while(0);
  1764  0724  109A               	bcf	26,1	;volatile
  1765                           
  1766                           ;main.c: 150: do { LATCbits.LATC0 = 0; } while(0);
  1767  0725  101A               	bcf	26,0	;volatile
  1768                           
  1769                           ;main.c: 151: do { LATAbits.LATA2 = 0; } while(0);
  1770  0726  1118               	bcf	24,2	;volatile
  1771                           
  1772                           ;main.c: 152: do { LATAbits.LATA1 = 0; } while(0);
  1773  0727  1098               	bcf	24,1	;volatile
  1774                           
  1775                           ;main.c: 153: do { LATAbits.LATA0 = 0; } while(0);
  1776  0728  1018               	bcf	24,0	;volatile
  1777                           
  1778                           ;main.c: 155: delay_ms(100);
  1779  0729  3064               	movlw	100
  1780  072A  00F0               	movwf	delay_ms@milliseconds
  1781  072B  3000               	movlw	0
  1782  072C  00F1               	movwf	delay_ms@milliseconds+1
  1783  072D  3183  239A  3186   	fcall	_delay_ms
  1784                           
  1785                           ;main.c: 156: do { LATCbits.LATC3 = 0; } while(0);
  1786  0730  0140               	movlb	0	; select bank0
  1787  0731  119A               	bcf	26,3	;volatile
  1788                           
  1789                           ;main.c: 157: do { LATCbits.LATC2 = 1; } while(0);
  1790  0732  151A               	bsf	26,2	;volatile
  1791                           
  1792                           ;main.c: 158: do { LATCbits.LATC1 = 0; } while(0);
  1793  0733  109A               	bcf	26,1	;volatile
  1794                           
  1795                           ;main.c: 159: do { LATCbits.LATC0 = 0; } while(0);
  1796  0734  101A               	bcf	26,0	;volatile
  1797                           
  1798                           ;main.c: 160: do { LATAbits.LATA2 = 0; } while(0);
  1799  0735  1118               	bcf	24,2	;volatile
  1800                           
  1801                           ;main.c: 161: do { LATAbits.LATA1 = 0; } while(0);
  1802  0736  1098               	bcf	24,1	;volatile
  1803                           
  1804                           ;main.c: 162: do { LATAbits.LATA0 = 0; } while(0);
  1805  0737  1018               	bcf	24,0	;volatile
  1806                           
  1807                           ;main.c: 164: delay_ms(100);
  1808  0738  3064               	movlw	100
  1809  0739  00F0               	movwf	delay_ms@milliseconds
  1810  073A  3000               	movlw	0
  1811  073B  00F1               	movwf	delay_ms@milliseconds+1
  1812  073C  3183  239A  3186   	fcall	_delay_ms
  1813                           
  1814                           ;main.c: 165: do { LATCbits.LATC3 = 0; } while(0);
  1815  073F  0140               	movlb	0	; select bank0
  1816  0740  119A               	bcf	26,3	;volatile
  1817                           
  1818                           ;main.c: 166: do { LATCbits.LATC2 = 0; } while(0);
  1819  0741  111A               	bcf	26,2	;volatile
  1820                           
  1821                           ;main.c: 167: do { LATCbits.LATC1 = 1; } while(0);
  1822  0742  149A               	bsf	26,1	;volatile
  1823                           
  1824                           ;main.c: 168: do { LATCbits.LATC0 = 0; } while(0);
  1825  0743  101A               	bcf	26,0	;volatile
  1826                           
  1827                           ;main.c: 169: do { LATAbits.LATA2 = 0; } while(0);
  1828  0744  1118               	bcf	24,2	;volatile
  1829                           
  1830                           ;main.c: 170: do { LATAbits.LATA1 = 0; } while(0);
  1831  0745  1098               	bcf	24,1	;volatile
  1832                           
  1833                           ;main.c: 171: do { LATAbits.LATA0 = 0; } while(0);
  1834  0746  1018               	bcf	24,0	;volatile
  1835                           
  1836                           ;main.c: 173: delay_ms(100);
  1837  0747  3064               	movlw	100
  1838  0748  00F0               	movwf	delay_ms@milliseconds
  1839  0749  3000               	movlw	0
  1840  074A  00F1               	movwf	delay_ms@milliseconds+1
  1841  074B  3183  239A  3186   	fcall	_delay_ms
  1842                           
  1843                           ;main.c: 174: do { LATCbits.LATC3 = 0; } while(0);
  1844  074E  0140               	movlb	0	; select bank0
  1845  074F  119A               	bcf	26,3	;volatile
  1846                           
  1847                           ;main.c: 175: do { LATCbits.LATC2 = 0; } while(0);
  1848  0750  111A               	bcf	26,2	;volatile
  1849                           
  1850                           ;main.c: 176: do { LATCbits.LATC1 = 0; } while(0);
  1851  0751  109A               	bcf	26,1	;volatile
  1852                           
  1853                           ;main.c: 177: do { LATCbits.LATC0 = 1; } while(0);
  1854  0752  141A               	bsf	26,0	;volatile
  1855                           
  1856                           ;main.c: 178: do { LATAbits.LATA2 = 0; } while(0);
  1857  0753  1118               	bcf	24,2	;volatile
  1858                           
  1859                           ;main.c: 179: do { LATAbits.LATA1 = 0; } while(0);
  1860  0754  1098               	bcf	24,1	;volatile
  1861                           
  1862                           ;main.c: 180: do { LATAbits.LATA0 = 0; } while(0);
  1863  0755  1018               	bcf	24,0	;volatile
  1864                           
  1865                           ;main.c: 182: delay_ms(100);
  1866  0756  3064               	movlw	100
  1867  0757  00F0               	movwf	delay_ms@milliseconds
  1868  0758  3000               	movlw	0
  1869  0759  00F1               	movwf	delay_ms@milliseconds+1
  1870  075A  3183  239A  3186   	fcall	_delay_ms
  1871                           
  1872                           ;main.c: 183: do { LATCbits.LATC3 = 0; } while(0);
  1873  075D  0140               	movlb	0	; select bank0
  1874  075E  119A               	bcf	26,3	;volatile
  1875                           
  1876                           ;main.c: 184: do { LATCbits.LATC2 = 0; } while(0);
  1877  075F  111A               	bcf	26,2	;volatile
  1878                           
  1879                           ;main.c: 185: do { LATCbits.LATC1 = 0; } while(0);
  1880  0760  109A               	bcf	26,1	;volatile
  1881                           
  1882                           ;main.c: 186: do { LATCbits.LATC0 = 0; } while(0);
  1883  0761  101A               	bcf	26,0	;volatile
  1884                           
  1885                           ;main.c: 187: do { LATAbits.LATA2 = 1; } while(0);
  1886  0762  1518               	bsf	24,2	;volatile
  1887                           
  1888                           ;main.c: 188: do { LATAbits.LATA1 = 0; } while(0);
  1889  0763  1098               	bcf	24,1	;volatile
  1890                           
  1891                           ;main.c: 189: do { LATAbits.LATA0 = 0; } while(0);
  1892  0764  1018               	bcf	24,0	;volatile
  1893                           
  1894                           ;main.c: 191: delay_ms(100);
  1895  0765  3064               	movlw	100
  1896  0766  00F0               	movwf	delay_ms@milliseconds
  1897  0767  3000               	movlw	0
  1898  0768  00F1               	movwf	delay_ms@milliseconds+1
  1899  0769  3183  239A  3186   	fcall	_delay_ms
  1900                           
  1901                           ;main.c: 192: do { LATCbits.LATC3 = 0; } while(0);
  1902  076C  0140               	movlb	0	; select bank0
  1903  076D  119A               	bcf	26,3	;volatile
  1904                           
  1905                           ;main.c: 193: do { LATCbits.LATC2 = 0; } while(0);
  1906  076E  111A               	bcf	26,2	;volatile
  1907                           
  1908                           ;main.c: 194: do { LATCbits.LATC1 = 0; } while(0);
  1909  076F  109A               	bcf	26,1	;volatile
  1910                           
  1911                           ;main.c: 195: do { LATCbits.LATC0 = 0; } while(0);
  1912  0770  101A               	bcf	26,0	;volatile
  1913                           
  1914                           ;main.c: 196: do { LATAbits.LATA2 = 0; } while(0);
  1915  0771  1118               	bcf	24,2	;volatile
  1916                           
  1917                           ;main.c: 197: do { LATAbits.LATA1 = 1; } while(0);
  1918  0772  1498               	bsf	24,1	;volatile
  1919                           
  1920                           ;main.c: 198: do { LATAbits.LATA0 = 0; } while(0);
  1921  0773  1018               	bcf	24,0	;volatile
  1922                           
  1923                           ;main.c: 200: delay_ms(100);
  1924  0774  3064               	movlw	100
  1925  0775  00F0               	movwf	delay_ms@milliseconds
  1926  0776  3000               	movlw	0
  1927  0777  00F1               	movwf	delay_ms@milliseconds+1
  1928  0778  3183  239A  3186   	fcall	_delay_ms
  1929                           
  1930                           ;main.c: 201: do { LATCbits.LATC3 = 0; } while(0);
  1931  077B  0140               	movlb	0	; select bank0
  1932  077C  119A               	bcf	26,3	;volatile
  1933                           
  1934                           ;main.c: 202: do { LATCbits.LATC2 = 0; } while(0);
  1935  077D  111A               	bcf	26,2	;volatile
  1936                           
  1937                           ;main.c: 203: do { LATCbits.LATC1 = 0; } while(0);
  1938  077E  109A               	bcf	26,1	;volatile
  1939                           
  1940                           ;main.c: 204: do { LATCbits.LATC0 = 0; } while(0);
  1941  077F  101A               	bcf	26,0	;volatile
  1942                           
  1943                           ;main.c: 205: do { LATAbits.LATA2 = 0; } while(0);
  1944  0780  1118               	bcf	24,2	;volatile
  1945                           
  1946                           ;main.c: 206: do { LATAbits.LATA1 = 0; } while(0);
  1947  0781  1098               	bcf	24,1	;volatile
  1948                           
  1949                           ;main.c: 207: do { LATAbits.LATA0 = 1; } while(0);
  1950  0782  1418               	bsf	24,0	;volatile
  1951                           
  1952                           ;main.c: 209: delay_ms(100);
  1953  0783  3064               	movlw	100
  1954  0784  00F0               	movwf	delay_ms@milliseconds
  1955  0785  3000               	movlw	0
  1956  0786  00F1               	movwf	delay_ms@milliseconds+1
  1957  0787  3183  239A  3186   	fcall	_delay_ms
  1958                           
  1959                           ;main.c: 210: break;
  1960  078A  2E1C               	goto	l71
  1961  078B                     l1419:	
  1962                           ;main.c: 212: do { LATCbits.LATC3 = ~LATCbits.LATC3; } while(0);
  1963                           
  1964                           ;main.c: 211: case RANDOM:
  1965                           
  1966  078B  1003               	clrc
  1967  078C  0140               	movlb	0	; select bank0
  1968  078D  1D9A               	btfss	26,3	;volatile
  1969  078E  1403               	setc
  1970  078F  1C03               	btfss	3,0
  1971  0790  2F94               	goto	u1410
  1972  0791  0140               	movlb	0	; select bank0
  1973  0792  159A               	bsf	26,3	;volatile
  1974  0793  2F96               	goto	l1421
  1975  0794                     u1410:	
  1976  0794  0140               	movlb	0	; select bank0
  1977  0795  119A               	bcf	26,3	;volatile
  1978  0796                     l1421:	
  1979                           
  1980                           ;main.c: 213: delay();
  1981  0796  3184  24A3  3186   	fcall	_delay
  1982                           
  1983                           ;main.c: 214: do { LATCbits.LATC2 = ~LATCbits.LATC2; } while(0);
  1984  0799  1003               	clrc
  1985  079A  0140               	movlb	0	; select bank0
  1986  079B  1D1A               	btfss	26,2	;volatile
  1987  079C  1403               	setc
  1988  079D  1C03               	btfss	3,0
  1989  079E  2FA2               	goto	u1430
  1990  079F  0140               	movlb	0	; select bank0
  1991  07A0  151A               	bsf	26,2	;volatile
  1992  07A1  2FA4               	goto	l266
  1993  07A2                     u1430:	
  1994  07A2  0140               	movlb	0	; select bank0
  1995  07A3  111A               	bcf	26,2	;volatile
  1996  07A4                     l266:	
  1997                           
  1998                           ;main.c: 215: delay();
  1999  07A4  3184  24A3  3186   	fcall	_delay
  2000                           
  2001                           ;main.c: 216: do { LATCbits.LATC1 = ~LATCbits.LATC1; } while(0);
  2002  07A7  1003               	clrc
  2003  07A8  0140               	movlb	0	; select bank0
  2004  07A9  1C9A               	btfss	26,1	;volatile
  2005  07AA  1403               	setc
  2006  07AB  1C03               	btfss	3,0
  2007  07AC  2FB0               	goto	u1450
  2008  07AD  0140               	movlb	0	; select bank0
  2009  07AE  149A               	bsf	26,1	;volatile
  2010  07AF  2FB2               	goto	l1427
  2011  07B0                     u1450:	
  2012  07B0  0140               	movlb	0	; select bank0
  2013  07B1  109A               	bcf	26,1	;volatile
  2014  07B2                     l1427:	
  2015                           
  2016                           ;main.c: 217: delay();
  2017  07B2  3184  24A3  3186   	fcall	_delay
  2018                           
  2019                           ;main.c: 218: do { LATCbits.LATC0 = ~LATCbits.LATC0; } while(0);
  2020  07B5  1003               	clrc
  2021  07B6  0140               	movlb	0	; select bank0
  2022  07B7  1C1A               	btfss	26,0	;volatile
  2023  07B8  1403               	setc
  2024  07B9  1C03               	btfss	3,0
  2025  07BA  2FBE               	goto	u1470
  2026  07BB  0140               	movlb	0	; select bank0
  2027  07BC  141A               	bsf	26,0	;volatile
  2028  07BD  2FC0               	goto	l1429
  2029  07BE                     u1470:	
  2030  07BE  0140               	movlb	0	; select bank0
  2031  07BF  101A               	bcf	26,0	;volatile
  2032  07C0                     l1429:	
  2033                           
  2034                           ;main.c: 219: delay();
  2035  07C0  3184  24A3  3186   	fcall	_delay
  2036                           
  2037                           ;main.c: 220: do { LATAbits.LATA2 = ~LATAbits.LATA2; } while(0);
  2038  07C3  1003               	clrc
  2039  07C4  0140               	movlb	0	; select bank0
  2040  07C5  1D18               	btfss	24,2	;volatile
  2041  07C6  1403               	setc
  2042  07C7  1C03               	btfss	3,0
  2043  07C8  2FCC               	goto	u1490
  2044  07C9  0140               	movlb	0	; select bank0
  2045  07CA  1518               	bsf	24,2	;volatile
  2046  07CB  2FCE               	goto	l272
  2047  07CC                     u1490:	
  2048  07CC  0140               	movlb	0	; select bank0
  2049  07CD  1118               	bcf	24,2	;volatile
  2050  07CE                     l272:	
  2051                           
  2052                           ;main.c: 221: delay();
  2053  07CE  3184  24A3  3186   	fcall	_delay
  2054                           
  2055                           ;main.c: 222: do { LATAbits.LATA1 = ~LATAbits.LATA1; } while(0);
  2056  07D1  1003               	clrc
  2057  07D2  0140               	movlb	0	; select bank0
  2058  07D3  1C98               	btfss	24,1	;volatile
  2059  07D4  1403               	setc
  2060  07D5  1C03               	btfss	3,0
  2061  07D6  2FDA               	goto	u1510
  2062  07D7  0140               	movlb	0	; select bank0
  2063  07D8  1498               	bsf	24,1	;volatile
  2064  07D9  2FDC               	goto	l1435
  2065  07DA                     u1510:	
  2066  07DA  0140               	movlb	0	; select bank0
  2067  07DB  1098               	bcf	24,1	;volatile
  2068  07DC                     l1435:	
  2069                           
  2070                           ;main.c: 223: delay();
  2071  07DC  3184  24A3  3186   	fcall	_delay
  2072                           
  2073                           ;main.c: 224: do { LATAbits.LATA0 = ~LATAbits.LATA0; } while(0);
  2074  07DF  1003               	clrc
  2075  07E0  0140               	movlb	0	; select bank0
  2076  07E1  1C18               	btfss	24,0	;volatile
  2077  07E2  1403               	setc
  2078  07E3  1C03               	btfss	3,0
  2079  07E4  2FE8               	goto	u1530
  2080  07E5  0140               	movlb	0	; select bank0
  2081  07E6  1418               	bsf	24,0	;volatile
  2082  07E7  2FEA               	goto	l1437
  2083  07E8                     u1530:	
  2084  07E8  0140               	movlb	0	; select bank0
  2085  07E9  1018               	bcf	24,0	;volatile
  2086  07EA                     l1437:	
  2087                           
  2088                           ;main.c: 225: delay();
  2089  07EA  3184  24A3  3186   	fcall	_delay
  2090                           
  2091                           ;main.c: 226: break;
  2092  07ED  2E1C               	goto	l71
  2093                           
  2094                           	psect	swtext1
  2095  0004                     __pswtext1:	
  2096  0004                     S1527:	
  2097  0004  3186  2E59         	ljmp	l106
  2098  0006  3186  2E5C         	ljmp	l1303
  2099  0008  3186  2E5E         	ljmp	l1305
  2100  000A  3186  2E60         	ljmp	l1307
  2101  000C  3186  2E62         	ljmp	l1309
  2102  000E  3186  2E64         	ljmp	l1311
  2103  0010  3186  2E66         	ljmp	l1313
  2104  0012  3186  2E68         	ljmp	l1315
  2105  0014  3186  2E6D         	ljmp	l1317
  2106                           
  2107                           	psect	swtext2
  2108  0016                     __pswtext2:	
  2109  0016                     S1529:	
  2110  0016  318F  2F87         	ljmp	l308
  2111  0018  3186  2E7C         	ljmp	l118
  2112  001A  3186  2E84         	ljmp	l1325
  2113  001C  3186  2ED2         	ljmp	l1329
  2114  001E  3187  2F21         	ljmp	l164
  2115  0020  3187  2F8B         	ljmp	l1419
  2116  0022  3184  2CEE         	ljmp	l278
  2117  0024  3185  2D0E         	ljmp	l1455
  2118  0026  318F  2F90         	ljmp	l1457
  2119                           
  2120                           	psect	text1
  2121  03E8                     __ptext1:	
  2122 ;; *************** function _light *****************
  2123 ;; Defined at:
  2124 ;;		line 360 in file "main.c"
  2125 ;; Parameters:    Size  Location     Type
  2126 ;;  l7              2    0[BANK0 ] int 
  2127 ;;  l6              2    2[BANK0 ] int 
  2128 ;;  l5              2    4[BANK0 ] int 
  2129 ;;  l4              2    6[BANK0 ] int 
  2130 ;;  l3              2    8[BANK0 ] int 
  2131 ;;  l2              2   10[BANK0 ] int 
  2132 ;;  l1              2   12[BANK0 ] int 
  2133 ;;  d               2   14[BANK0 ] unsigned int 
  2134 ;; Auto vars:     Size  Location     Type
  2135 ;;		None
  2136 ;; Return value:  Size  Location     Type
  2137 ;;                  1    wreg      void 
  2138 ;; Registers used:
  2139 ;;		wreg, status,2, status,0, pclath, cstack
  2140 ;; Tracked objects:
  2141 ;;		On entry : 0/0
  2142 ;;		On exit  : 0/0
  2143 ;;		Unchanged: 0/0
  2144 ;; Data sizes:     COMMON   BANK0   BANK1   BANK2   BANK3   BANK4   BANK5   BANK6   BANK7   BANK8   BANK9  BANK10  BANK1
      +1  BANK12
  2145 ;;      Params:         0      16       0       0       0       0       0       0       0       0       0       0       
      +0       0
  2146 ;;      Locals:         0       0       0       0       0       0       0       0       0       0       0       0       
      +0       0
  2147 ;;      Temps:          0       0       0       0       0       0       0       0       0       0       0       0       
      +0       0
  2148 ;;      Totals:         0      16       0       0       0       0       0       0       0       0       0       0       
      +0       0
  2149 ;;Total ram usage:       16 bytes
  2150 ;; Hardware stack levels used:    1
  2151 ;; Hardware stack levels required when called:    1
  2152 ;; This function calls:
  2153 ;;		_delay_ms
  2154 ;; This function is called by:
  2155 ;;		_main
  2156 ;; This function uses a non-reentrant model
  2157 ;;
  2158                           
  2159                           
  2160                           ;psect for function _light
  2161  03E8                     _light:	
  2162                           
  2163                           ;main.c: 362: if(l7){
  2164                           
  2165                           ;incstack = 0
  2166                           ; Regs used in _light: [wreg+status,2+status,0+pclath+cstack]
  2167  03E8  0140               	movlb	0	; select bank0
  2168  03E9  0820               	movf	light@l7,w
  2169  03EA  0421               	iorwf	light@l7+1,w
  2170  03EB  1903               	btfsc	3,2
  2171  03EC  2BEF               	goto	l361
  2172                           
  2173                           ;main.c: 363: do { LATAbits.LATA0 = 1; } while(0);
  2174  03ED  1418               	bsf	24,0	;volatile
  2175                           
  2176                           ;main.c: 364: }
  2177  03EE  2BF0               	goto	l1267
  2178  03EF                     l361:	
  2179                           ;main.c: 365: else{
  2180                           ;main.c: 366: do { LATAbits.LATA0 = 0; } while(0);
  2181                           
  2182  03EF  1018               	bcf	24,0	;volatile
  2183  03F0                     l1267:	
  2184                           
  2185                           ;main.c: 367: }
  2186                           ;main.c: 368: if(l6){
  2187  03F0  0822               	movf	light@l6,w
  2188  03F1  0423               	iorwf	light@l6+1,w
  2189  03F2  1903               	btfsc	3,2
  2190  03F3  2BF6               	goto	l367
  2191                           
  2192                           ;main.c: 369: do { LATAbits.LATA1 = 1; } while(0);
  2193  03F4  1498               	bsf	24,1	;volatile
  2194                           
  2195                           ;main.c: 370: }
  2196  03F5  2BF7               	goto	l1269
  2197  03F6                     l367:	
  2198                           ;main.c: 371: else{
  2199                           ;main.c: 372: do { LATAbits.LATA1 = 0; } while(0);
  2200                           
  2201  03F6  1098               	bcf	24,1	;volatile
  2202  03F7                     l1269:	
  2203                           
  2204                           ;main.c: 373: }
  2205                           ;main.c: 374: if(l5){
  2206  03F7  0824               	movf	light@l5,w
  2207  03F8  0425               	iorwf	light@l5+1,w
  2208  03F9  1903               	btfsc	3,2
  2209  03FA  2BFD               	goto	l373
  2210                           
  2211                           ;main.c: 375: do { LATAbits.LATA2 = 1; } while(0);
  2212  03FB  1518               	bsf	24,2	;volatile
  2213                           
  2214                           ;main.c: 376: }
  2215  03FC  2BFE               	goto	l1271
  2216  03FD                     l373:	
  2217                           ;main.c: 377: else{
  2218                           ;main.c: 378: do { LATAbits.LATA2 = 0; } while(0);
  2219                           
  2220  03FD  1118               	bcf	24,2	;volatile
  2221  03FE                     l1271:	
  2222                           
  2223                           ;main.c: 379: }
  2224                           ;main.c: 380: if(l4){
  2225  03FE  0826               	movf	light@l4,w
  2226  03FF  0427               	iorwf	light@l4+1,w
  2227  0400  1903               	btfsc	3,2
  2228  0401  2C04               	goto	l379
  2229                           
  2230                           ;main.c: 381: do { LATCbits.LATC0 = 1; } while(0);
  2231  0402  141A               	bsf	26,0	;volatile
  2232                           
  2233                           ;main.c: 382: }
  2234  0403  2C05               	goto	l1273
  2235  0404                     l379:	
  2236                           ;main.c: 383: else{
  2237                           ;main.c: 384: do { LATCbits.LATC0 = 0; } while(0);
  2238                           
  2239  0404  101A               	bcf	26,0	;volatile
  2240  0405                     l1273:	
  2241                           
  2242                           ;main.c: 385: }
  2243                           ;main.c: 386: if(l3){
  2244  0405  0828               	movf	light@l3,w
  2245  0406  0429               	iorwf	light@l3+1,w
  2246  0407  1903               	btfsc	3,2
  2247  0408  2C0B               	goto	l385
  2248                           
  2249                           ;main.c: 387: do { LATCbits.LATC1 = 1; } while(0);
  2250  0409  149A               	bsf	26,1	;volatile
  2251                           
  2252                           ;main.c: 388: }
  2253  040A  2C0C               	goto	l1275
  2254  040B                     l385:	
  2255                           ;main.c: 389: else{
  2256                           ;main.c: 390: do { LATCbits.LATC1 = 0; } while(0);
  2257                           
  2258  040B  109A               	bcf	26,1	;volatile
  2259  040C                     l1275:	
  2260                           
  2261                           ;main.c: 391: }
  2262                           ;main.c: 392: if(l2){
  2263  040C  082A               	movf	light@l2,w
  2264  040D  042B               	iorwf	light@l2+1,w
  2265  040E  1903               	btfsc	3,2
  2266  040F  2C12               	goto	l391
  2267                           
  2268                           ;main.c: 393: do { LATCbits.LATC2 = 1; } while(0);
  2269  0410  151A               	bsf	26,2	;volatile
  2270                           
  2271                           ;main.c: 394: }
  2272  0411  2C13               	goto	l1277
  2273  0412                     l391:	
  2274                           ;main.c: 395: else{
  2275                           ;main.c: 396: do { LATCbits.LATC2 = 0; } while(0);
  2276                           
  2277  0412  111A               	bcf	26,2	;volatile
  2278  0413                     l1277:	
  2279                           
  2280                           ;main.c: 397: }
  2281                           ;main.c: 398: if(l1){
  2282  0413  082C               	movf	light@l1,w
  2283  0414  042D               	iorwf	light@l1+1,w
  2284  0415  1903               	btfsc	3,2
  2285  0416  2C19               	goto	l397
  2286                           
  2287                           ;main.c: 399: do { LATCbits.LATC3 = 1; } while(0);
  2288  0417  159A               	bsf	26,3	;volatile
  2289                           
  2290                           ;main.c: 400: }
  2291  0418  2C1A               	goto	l1279
  2292  0419                     l397:	
  2293                           ;main.c: 401: else{
  2294                           ;main.c: 402: do { LATCbits.LATC3 = 0; } while(0);
  2295                           
  2296  0419  119A               	bcf	26,3	;volatile
  2297  041A                     l1279:	
  2298                           
  2299                           ;main.c: 403: }
  2300                           ;main.c: 404: delay_ms(d);
  2301  041A  082F               	movf	light@d+1,w
  2302  041B  00F1               	movwf	delay_ms@milliseconds+1
  2303  041C  082E               	movf	light@d,w
  2304  041D  00F0               	movwf	delay_ms@milliseconds
  2305  041E  3183  239A         	fcall	_delay_ms
  2306  0420  0008               	return
  2307  0421                     __end_of_light:	
  2308                           
  2309                           	psect	text2
  2310  039A                     __ptext2:	
  2311 ;; *************** function _delay_ms *****************
  2312 ;; Defined at:
  2313 ;;		line 351 in file "main.c"
  2314 ;; Parameters:    Size  Location     Type
  2315 ;;  milliseconds    2    0[COMMON] unsigned int 
  2316 ;; Auto vars:     Size  Location     Type
  2317 ;;		None
  2318 ;; Return value:  Size  Location     Type
  2319 ;;                  1    wreg      void 
  2320 ;; Registers used:
  2321 ;;		wreg, status,2, status,0
  2322 ;; Tracked objects:
  2323 ;;		On entry : 0/0
  2324 ;;		On exit  : 0/0
  2325 ;;		Unchanged: 0/0
  2326 ;; Data sizes:     COMMON   BANK0   BANK1   BANK2   BANK3   BANK4   BANK5   BANK6   BANK7   BANK8   BANK9  BANK10  BANK1
      +1  BANK12
  2327 ;;      Params:         2       0       0       0       0       0       0       0       0       0       0       0       
      +0       0
  2328 ;;      Locals:         0       0       0       0       0       0       0       0       0       0       0       0       
      +0       0
  2329 ;;      Temps:          0       0       0       0       0       0       0       0       0       0       0       0       
      +0       0
  2330 ;;      Totals:         2       0       0       0       0       0       0       0       0       0       0       0       
      +0       0
  2331 ;;Total ram usage:        2 bytes
  2332 ;; Hardware stack levels used:    1
  2333 ;; This function calls:
  2334 ;;		Nothing
  2335 ;; This function is called by:
  2336 ;;		_main
  2337 ;;		_light
  2338 ;; This function uses a non-reentrant model
  2339 ;;
  2340                           
  2341                           
  2342                           ;psect for function _delay_ms
  2343  039A                     _delay_ms:	
  2344  039A                     l1207:	
  2345                           ;main.c: 353: while(milliseconds > 0)
  2346                           
  2347                           ;incstack = 0
  2348                           ; Regs used in _delay_ms: [wreg+status,2+status,0]
  2349                           
  2350  039A  0870               	movf	delay_ms@milliseconds,w
  2351  039B  0471               	iorwf	delay_ms@milliseconds+1,w
  2352  039C  1903               	btfsc	3,2
  2353  039D  0008               	return
  2354                           
  2355                           ;main.c: 354: {
  2356                           ;main.c: 355: milliseconds--;
  2357  039E  3001               	movlw	1
  2358  039F  02F0               	subwf	delay_ms@milliseconds,f
  2359  03A0  3000               	movlw	0
  2360  03A1  3BF1               	subwfb	delay_ms@milliseconds+1,f
  2361                           
  2362                           ;main.c: 356: _delay((unsigned long)((990)*(1000000/4000000.0)));
  2363  03A2  3052               	movlw	82
  2364  03A3                     u1697:	
  2365  03A3  0B89               	decfsz	9,f
  2366  03A4  2BA3               	goto	u1697
  2367  03A5  0000               	nop
  2368  03A6  2B9A               	goto	l1207
  2369  03A7                     __end_of_delay_ms:	
  2370                           
  2371                           	psect	text3
  2372  04A3                     __ptext3:	
  2373 ;; *************** function _delay *****************
  2374 ;; Defined at:
  2375 ;;		line 344 in file "main.c"
  2376 ;; Parameters:    Size  Location     Type
  2377 ;;		None
  2378 ;; Auto vars:     Size  Location     Type
  2379 ;;  j               2   17[BANK0 ] int 
  2380 ;;  i               2   15[BANK0 ] int 
  2381 ;;  r               2   13[BANK0 ] int 
  2382 ;; Return value:  Size  Location     Type
  2383 ;;                  1    wreg      void 
  2384 ;; Registers used:
  2385 ;;		wreg, status,2, status,0, pclath, cstack
  2386 ;; Tracked objects:
  2387 ;;		On entry : 0/0
  2388 ;;		On exit  : 0/0
  2389 ;;		Unchanged: 0/0
  2390 ;; Data sizes:     COMMON   BANK0   BANK1   BANK2   BANK3   BANK4   BANK5   BANK6   BANK7   BANK8   BANK9  BANK10  BANK1
      +1  BANK12
  2391 ;;      Params:         0       0       0       0       0       0       0       0       0       0       0       0       
      +0       0
  2392 ;;      Locals:         0       6       0       0       0       0       0       0       0       0       0       0       
      +0       0
  2393 ;;      Temps:          0       1       0       0       0       0       0       0       0       0       0       0       
      +0       0
  2394 ;;      Totals:         0       7       0       0       0       0       0       0       0       0       0       0       
      +0       0
  2395 ;;Total ram usage:        7 bytes
  2396 ;; Hardware stack levels used:    1
  2397 ;; Hardware stack levels required when called:    2
  2398 ;; This function calls:
  2399 ;;		___awmod
  2400 ;;		_rand
  2401 ;; This function is called by:
  2402 ;;		_main
  2403 ;; This function uses a non-reentrant model
  2404 ;;
  2405                           
  2406                           
  2407                           ;psect for function _delay
  2408  04A3                     _delay:	
  2409                           
  2410                           ;main.c: 346: int i=0,j=0;
  2411                           
  2412                           ;incstack = 0
  2413                           ; Regs used in _delay: [wreg+status,2+status,0+pclath+cstack]
  2414  04A3  0140               	movlb	0	; select bank0
  2415  04A4  01AF               	clrf	delay@i
  2416  04A5  01B0               	clrf	delay@i+1
  2417  04A6  01B1               	clrf	delay@j
  2418  04A7  01B2               	clrf	delay@j+1
  2419                           
  2420                           ;main.c: 347: int r=(rand() % (400 + 1 - 5)) + 5;
  2421  04A8  308C               	movlw	140
  2422  04A9  00A5               	movwf	___awmod@divisor
  2423  04AA  3001               	movlw	1
  2424  04AB  00A6               	movwf	___awmod@divisor+1
  2425  04AC  3184  2421  3184   	fcall	_rand
  2426  04AF  087D               	movf	?_rand+1,w
  2427  04B0  0140               	movlb	0	; select bank0
  2428  04B1  00A8               	movwf	___awmod@dividend+1
  2429  04B2  087C               	movf	?_rand,w
  2430  04B3  00A7               	movwf	___awmod@dividend
  2431  04B4  3184  245D  3184   	fcall	___awmod
  2432  04B7  0140               	movlb	0	; select bank0
  2433  04B8  0825               	movf	?___awmod,w
  2434  04B9  3E05               	addlw	5
  2435  04BA  00AD               	movwf	delay@r
  2436  04BB  3000               	movlw	0
  2437  04BC  3D26               	addwfc	?___awmod+1,w
  2438  04BD  00AE               	movwf	delay@r+1
  2439                           
  2440                           ;main.c: 348: for(i=0;i<r;i++){for(j=0;j<8;j++){}}
  2441  04BE  01AF               	clrf	delay@i
  2442  04BF  01B0               	clrf	delay@i+1
  2443  04C0                     l343:	
  2444  04C0  0830               	movf	delay@i+1,w
  2445  04C1  3A80               	xorlw	128
  2446  04C2  00AC               	movwf	??_delay
  2447  04C3  082E               	movf	delay@r+1,w
  2448  04C4  3A80               	xorlw	128
  2449  04C5  022C               	subwf	??_delay,w
  2450  04C6  1D03               	skipz
  2451  04C7  2CCA               	goto	u1025
  2452  04C8  082D               	movf	delay@r,w
  2453  04C9  022F               	subwf	delay@i,w
  2454  04CA                     u1025:	
  2455  04CA  1803               	btfsc	3,0
  2456  04CB  0008               	return
  2457  04CC  0140               	movlb	0	; select bank0
  2458  04CD  01B1               	clrf	delay@j
  2459  04CE  01B2               	clrf	delay@j+1
  2460  04CF  0832               	movf	delay@j+1,w
  2461  04D0  3A80               	xorlw	128
  2462  04D1  00AC               	movwf	??_delay
  2463  04D2  3080               	movlw	128
  2464  04D3  022C               	subwf	??_delay,w
  2465  04D4  3008               	movlw	8
  2466  04D5  1903               	btfsc	3,2
  2467  04D6  0231               	subwf	delay@j,w
  2468  04D7  1803               	btfsc	3,0
  2469  04D8  2CE8               	goto	l1263
  2470  04D9                     l1261:	
  2471  04D9  3001               	movlw	1
  2472  04DA  0140               	movlb	0	; select bank0
  2473  04DB  07B1               	addwf	delay@j,f
  2474  04DC  3000               	movlw	0
  2475  04DD  3DB2               	addwfc	delay@j+1,f
  2476  04DE  0832               	movf	delay@j+1,w
  2477  04DF  3A80               	xorlw	128
  2478  04E0  00AC               	movwf	??_delay
  2479  04E1  3080               	movlw	128
  2480  04E2  022C               	subwf	??_delay,w
  2481  04E3  3008               	movlw	8
  2482  04E4  1903               	btfsc	3,2
  2483  04E5  0231               	subwf	delay@j,w
  2484  04E6  1C03               	skipc
  2485  04E7  2CD9               	goto	l1261
  2486  04E8                     l1263:	
  2487  04E8  3001               	movlw	1
  2488  04E9  0140               	movlb	0	; select bank0
  2489  04EA  07AF               	addwf	delay@i,f
  2490  04EB  3000               	movlw	0
  2491  04EC  3DB0               	addwfc	delay@i+1,f
  2492  04ED  2CC0               	goto	l343
  2493  04EE                     __end_of_delay:	
  2494                           
  2495                           	psect	text4
  2496  0421                     __ptext4:	
  2497 ;; *************** function _rand *****************
  2498 ;; Defined at:
  2499 ;;		line 12 in file "/Applications/microchip/xc8/v1.42/sources/common/rand.c"
  2500 ;; Parameters:    Size  Location     Type
  2501 ;;		None
  2502 ;; Auto vars:     Size  Location     Type
  2503 ;;		None
  2504 ;; Return value:  Size  Location     Type
  2505 ;;                  2   12[COMMON] int 
  2506 ;; Registers used:
  2507 ;;		wreg, status,2, status,0, pclath, cstack
  2508 ;; Tracked objects:
  2509 ;;		On entry : 0/0
  2510 ;;		On exit  : 0/0
  2511 ;;		Unchanged: 0/0
  2512 ;; Data sizes:     COMMON   BANK0   BANK1   BANK2   BANK3   BANK4   BANK5   BANK6   BANK7   BANK8   BANK9  BANK10  BANK1
      +1  BANK12
  2513 ;;      Params:         2       0       0       0       0       0       0       0       0       0       0       0       
      +0       0
  2514 ;;      Locals:         0       0       0       0       0       0       0       0       0       0       0       0       
      +0       0
  2515 ;;      Temps:          0       5       0       0       0       0       0       0       0       0       0       0       
      +0       0
  2516 ;;      Totals:         2       5       0       0       0       0       0       0       0       0       0       0       
      +0       0
  2517 ;;Total ram usage:        7 bytes
  2518 ;; Hardware stack levels used:    1
  2519 ;; Hardware stack levels required when called:    1
  2520 ;; This function calls:
  2521 ;;		___lmul
  2522 ;; This function is called by:
  2523 ;;		_main
  2524 ;;		_delay
  2525 ;; This function uses a non-reentrant model
  2526 ;;
  2527                           
  2528                           
  2529                           ;psect for function _rand
  2530  0421                     _rand:	
  2531                           
  2532                           ;incstack = 0
  2533                           ; Regs used in _rand: [wreg+status,2+status,0+pclath+cstack]
  2534  0421  0140               	movlb	0	; select bank0
  2535  0422  0840               	movf	_randx+3,w
  2536  0423  00F3               	movwf	___lmul@multiplier+3
  2537  0424  083F               	movf	_randx+2,w
  2538  0425  00F2               	movwf	___lmul@multiplier+2
  2539  0426  083E               	movf	_randx+1,w
  2540  0427  00F1               	movwf	___lmul@multiplier+1
  2541  0428  083D               	movf	_randx,w
  2542  0429  00F0               	movwf	___lmul@multiplier
  2543  042A  3041               	movlw	65
  2544  042B  00F7               	movwf	___lmul@multiplicand+3
  2545  042C  30C6               	movlw	198
  2546  042D  00F6               	movwf	___lmul@multiplicand+2
  2547  042E  304E               	movlw	78
  2548  042F  00F5               	movwf	___lmul@multiplicand+1
  2549  0430  306D               	movlw	109
  2550  0431  00F4               	movwf	___lmul@multiplicand
  2551  0432  3183  23B9  3184   	fcall	___lmul
  2552  0435  0873               	movf	?___lmul+3,w
  2553  0436  0140               	movlb	0	; select bank0
  2554  0437  00C0               	movwf	_randx+3
  2555  0438  0872               	movf	?___lmul+2,w
  2556  0439  00BF               	movwf	_randx+2
  2557  043A  0871               	movf	?___lmul+1,w
  2558  043B  00BE               	movwf	_randx+1
  2559  043C  0870               	movf	?___lmul,w
  2560  043D  00BD               	movwf	_randx
  2561  043E  3039               	movlw	57
  2562  043F  07BD               	addwf	_randx,f
  2563  0440  3030               	movlw	48
  2564  0441  3DBE               	addwfc	_randx+1,f
  2565  0442  3000               	movlw	0
  2566  0443  3DBF               	addwfc	_randx+2,f
  2567  0444  3000               	movlw	0
  2568  0445  3DC0               	addwfc	_randx+3,f
  2569  0446  083D               	movf	_randx,w
  2570  0447  00A0               	movwf	??_rand
  2571  0448  083E               	movf	_randx+1,w
  2572  0449  00A1               	movwf	??_rand+1
  2573  044A  083F               	movf	_randx+2,w
  2574  044B  00A2               	movwf	??_rand+2
  2575  044C  0840               	movf	_randx+3,w
  2576  044D  00A3               	movwf	??_rand+3
  2577  044E  3010               	movlw	16
  2578  044F  00A4               	movwf	??_rand+4
  2579  0450                     u895:	
  2580  0450  37A3               	asrf	??_rand+3,f
  2581  0451  0CA2               	rrf	??_rand+2,f
  2582  0452  0CA1               	rrf	??_rand+1,f
  2583  0453  0CA0               	rrf	??_rand,f
  2584  0454  0BA4               	decfsz	??_rand+4,f
  2585  0455  2C50               	goto	u895
  2586  0456  30FF               	movlw	255
  2587  0457  0520               	andwf	??_rand,w
  2588  0458  00FC               	movwf	?_rand
  2589  0459  307F               	movlw	127
  2590  045A  0521               	andwf	??_rand+1,w
  2591  045B  00FD               	movwf	?_rand+1
  2592  045C  0008               	return
  2593  045D                     __end_of_rand:	
  2594                           
  2595                           	psect	text5
  2596  03B9                     __ptext5:	
  2597 ;; *************** function ___lmul *****************
  2598 ;; Defined at:
  2599 ;;		line 15 in file "/Applications/microchip/xc8/v1.42/sources/common/Umul32.c"
  2600 ;; Parameters:    Size  Location     Type
  2601 ;;  multiplier      4    0[COMMON] unsigned long 
  2602 ;;  multiplicand    4    4[COMMON] unsigned long 
  2603 ;; Auto vars:     Size  Location     Type
  2604 ;;  product         4    8[COMMON] unsigned long 
  2605 ;; Return value:  Size  Location     Type
  2606 ;;                  4    0[COMMON] unsigned long 
  2607 ;; Registers used:
  2608 ;;		wreg, status,2, status,0
  2609 ;; Tracked objects:
  2610 ;;		On entry : 0/0
  2611 ;;		On exit  : 0/0
  2612 ;;		Unchanged: 0/0
  2613 ;; Data sizes:     COMMON   BANK0   BANK1   BANK2   BANK3   BANK4   BANK5   BANK6   BANK7   BANK8   BANK9  BANK10  BANK1
      +1  BANK12
  2614 ;;      Params:         8       0       0       0       0       0       0       0       0       0       0       0       
      +0       0
  2615 ;;      Locals:         4       0       0       0       0       0       0       0       0       0       0       0       
      +0       0
  2616 ;;      Temps:          0       0       0       0       0       0       0       0       0       0       0       0       
      +0       0
  2617 ;;      Totals:        12       0       0       0       0       0       0       0       0       0       0       0       
      +0       0
  2618 ;;Total ram usage:       12 bytes
  2619 ;; Hardware stack levels used:    1
  2620 ;; This function calls:
  2621 ;;		Nothing
  2622 ;; This function is called by:
  2623 ;;		_rand
  2624 ;; This function uses a non-reentrant model
  2625 ;;
  2626                           
  2627                           
  2628                           ;psect for function ___lmul
  2629  03B9                     ___lmul:	
  2630                           
  2631                           ;incstack = 0
  2632                           ; Regs used in ___lmul: [wreg+status,2+status,0]
  2633  03B9  3000               	movlw	0
  2634  03BA  00FB               	movwf	___lmul@product+3
  2635  03BB  3000               	movlw	0
  2636  03BC  00FA               	movwf	___lmul@product+2
  2637  03BD  3000               	movlw	0
  2638  03BE  00F9               	movwf	___lmul@product+1
  2639  03BF  3000               	movlw	0
  2640  03C0  00F8               	movwf	___lmul@product
  2641  03C1                     l1157:	
  2642  03C1  1C70               	btfss	___lmul@multiplier,0
  2643  03C2  2BCB               	goto	l1161
  2644  03C3  0874               	movf	___lmul@multiplicand,w
  2645  03C4  07F8               	addwf	___lmul@product,f
  2646  03C5  0875               	movf	___lmul@multiplicand+1,w
  2647  03C6  3DF9               	addwfc	___lmul@product+1,f
  2648  03C7  0876               	movf	___lmul@multiplicand+2,w
  2649  03C8  3DFA               	addwfc	___lmul@product+2,f
  2650  03C9  0877               	movf	___lmul@multiplicand+3,w
  2651  03CA  3DFB               	addwfc	___lmul@product+3,f
  2652  03CB                     l1161:	
  2653  03CB  3001               	movlw	1
  2654  03CC                     u865:	
  2655  03CC  35F4               	lslf	___lmul@multiplicand,f
  2656  03CD  0DF5               	rlf	___lmul@multiplicand+1,f
  2657  03CE  0DF6               	rlf	___lmul@multiplicand+2,f
  2658  03CF  0DF7               	rlf	___lmul@multiplicand+3,f
  2659  03D0  0B89               	decfsz	9,f
  2660  03D1  2BCC               	goto	u865
  2661  03D2  3001               	movlw	1
  2662  03D3                     u875:	
  2663  03D3  36F3               	lsrf	___lmul@multiplier+3,f
  2664  03D4  0CF2               	rrf	___lmul@multiplier+2,f
  2665  03D5  0CF1               	rrf	___lmul@multiplier+1,f
  2666  03D6  0CF0               	rrf	___lmul@multiplier,f
  2667  03D7  0B89               	decfsz	9,f
  2668  03D8  2BD3               	goto	u875
  2669  03D9  0873               	movf	___lmul@multiplier+3,w
  2670  03DA  0472               	iorwf	___lmul@multiplier+2,w
  2671  03DB  0471               	iorwf	___lmul@multiplier+1,w
  2672  03DC  0470               	iorwf	___lmul@multiplier,w
  2673  03DD  1D03               	skipz
  2674  03DE  2BC1               	goto	l1157
  2675  03DF  087B               	movf	___lmul@product+3,w
  2676  03E0  00F3               	movwf	?___lmul+3
  2677  03E1  087A               	movf	___lmul@product+2,w
  2678  03E2  00F2               	movwf	?___lmul+2
  2679  03E3  0879               	movf	___lmul@product+1,w
  2680  03E4  00F1               	movwf	?___lmul+1
  2681  03E5  0878               	movf	___lmul@product,w
  2682  03E6  00F0               	movwf	?___lmul
  2683  03E7  0008               	return
  2684  03E8                     __end_of___lmul:	
  2685                           
  2686                           	psect	text6
  2687  045D                     __ptext6:	
  2688 ;; *************** function ___awmod *****************
  2689 ;; Defined at:
  2690 ;;		line 6 in file "/Applications/microchip/xc8/v1.42/sources/common/awmod.c"
  2691 ;; Parameters:    Size  Location     Type
  2692 ;;  divisor         2    5[BANK0 ] int 
  2693 ;;  dividend        2    7[BANK0 ] int 
  2694 ;; Auto vars:     Size  Location     Type
  2695 ;;  sign            1   11[BANK0 ] unsigned char 
  2696 ;;  counter         1   10[BANK0 ] unsigned char 
  2697 ;; Return value:  Size  Location     Type
  2698 ;;                  2    5[BANK0 ] int 
  2699 ;; Registers used:
  2700 ;;		wreg, status,2, status,0
  2701 ;; Tracked objects:
  2702 ;;		On entry : 0/0
  2703 ;;		On exit  : 0/0
  2704 ;;		Unchanged: 0/0
  2705 ;; Data sizes:     COMMON   BANK0   BANK1   BANK2   BANK3   BANK4   BANK5   BANK6   BANK7   BANK8   BANK9  BANK10  BANK1
      +1  BANK12
  2706 ;;      Params:         0       4       0       0       0       0       0       0       0       0       0       0       
      +0       0
  2707 ;;      Locals:         0       2       0       0       0       0       0       0       0       0       0       0       
      +0       0
  2708 ;;      Temps:          0       1       0       0       0       0       0       0       0       0       0       0       
      +0       0
  2709 ;;      Totals:         0       7       0       0       0       0       0       0       0       0       0       0       
      +0       0
  2710 ;;Total ram usage:        7 bytes
  2711 ;; Hardware stack levels used:    1
  2712 ;; This function calls:
  2713 ;;		Nothing
  2714 ;; This function is called by:
  2715 ;;		_main
  2716 ;;		_delay
  2717 ;; This function uses a non-reentrant model
  2718 ;;
  2719                           
  2720                           
  2721                           ;psect for function ___awmod
  2722  045D                     ___awmod:	
  2723                           
  2724                           ;incstack = 0
  2725                           ; Regs used in ___awmod: [wreg+status,2+status,0]
  2726  045D  0140               	movlb	0	; select bank0
  2727  045E  01AB               	clrf	___awmod@sign
  2728  045F  1FA8               	btfss	___awmod@dividend+1,7
  2729  0460  2C68               	goto	l1217
  2730  0461  09A7               	comf	___awmod@dividend,f
  2731  0462  09A8               	comf	___awmod@dividend+1,f
  2732  0463  0AA7               	incf	___awmod@dividend,f
  2733  0464  1903               	skipnz
  2734  0465  0AA8               	incf	___awmod@dividend+1,f
  2735  0466  01AB               	clrf	___awmod@sign
  2736  0467  0AAB               	incf	___awmod@sign,f
  2737  0468                     l1217:	
  2738  0468  1FA6               	btfss	___awmod@divisor+1,7
  2739  0469  2C6F               	goto	l1221
  2740  046A  09A5               	comf	___awmod@divisor,f
  2741  046B  09A6               	comf	___awmod@divisor+1,f
  2742  046C  0AA5               	incf	___awmod@divisor,f
  2743  046D  1903               	skipnz
  2744  046E  0AA6               	incf	___awmod@divisor+1,f
  2745  046F                     l1221:	
  2746  046F  0825               	movf	___awmod@divisor,w
  2747  0470  0426               	iorwf	___awmod@divisor+1,w
  2748  0471  1903               	btfsc	3,2
  2749  0472  2C96               	goto	l1239
  2750  0473  01AA               	clrf	___awmod@counter
  2751  0474  0AAA               	incf	___awmod@counter,f
  2752  0475                     l1229:	
  2753  0475  1BA6               	btfsc	___awmod@divisor+1,7
  2754  0476  2C81               	goto	l1231
  2755  0477  3001               	movlw	1
  2756  0478                     u945:	
  2757  0478  35A5               	lslf	___awmod@divisor,f
  2758  0479  0DA6               	rlf	___awmod@divisor+1,f
  2759  047A  0B89               	decfsz	9,f
  2760  047B  2C78               	goto	u945
  2761  047C  3001               	movlw	1
  2762  047D  00A9               	movwf	??___awmod
  2763  047E  0829               	movf	??___awmod,w
  2764  047F  07AA               	addwf	___awmod@counter,f
  2765  0480  2C75               	goto	l1229
  2766  0481                     l1231:	
  2767  0481  0826               	movf	___awmod@divisor+1,w
  2768  0482  0228               	subwf	___awmod@dividend+1,w
  2769  0483  1D03               	skipz
  2770  0484  2C87               	goto	u965
  2771  0485  0825               	movf	___awmod@divisor,w
  2772  0486  0227               	subwf	___awmod@dividend,w
  2773  0487                     u965:	
  2774  0487  1C03               	skipc
  2775  0488  2C8D               	goto	l1235
  2776  0489  0825               	movf	___awmod@divisor,w
  2777  048A  02A7               	subwf	___awmod@dividend,f
  2778  048B  0826               	movf	___awmod@divisor+1,w
  2779  048C  3BA8               	subwfb	___awmod@dividend+1,f
  2780  048D                     l1235:	
  2781  048D  3001               	movlw	1
  2782  048E                     u975:	
  2783  048E  36A6               	lsrf	___awmod@divisor+1,f
  2784  048F  0CA5               	rrf	___awmod@divisor,f
  2785  0490  0B89               	decfsz	9,f
  2786  0491  2C8E               	goto	u975
  2787  0492  3001               	movlw	1
  2788  0493  02AA               	subwf	___awmod@counter,f
  2789  0494  1D03               	btfss	3,2
  2790  0495  2C81               	goto	l1231
  2791  0496                     l1239:	
  2792  0496  082B               	movf	___awmod@sign,w
  2793  0497  1903               	btfsc	3,2
  2794  0498  2C9E               	goto	l1243
  2795  0499  09A7               	comf	___awmod@dividend,f
  2796  049A  09A8               	comf	___awmod@dividend+1,f
  2797  049B  0AA7               	incf	___awmod@dividend,f
  2798  049C  1903               	skipnz
  2799  049D  0AA8               	incf	___awmod@dividend+1,f
  2800  049E                     l1243:	
  2801  049E  0828               	movf	___awmod@dividend+1,w
  2802  049F  00A6               	movwf	?___awmod+1
  2803  04A0  0827               	movf	___awmod@dividend,w
  2804  04A1  00A5               	movwf	?___awmod
  2805  04A2  0008               	return
  2806  04A3                     __end_of___awmod:	
  2807                           
  2808                           	psect	text7
  2809  038A                     __ptext7:	
  2810 ;; *************** function _SYSTEM_Initialize *****************
  2811 ;; Defined at:
  2812 ;;		line 86 in file "mcc_generated_files/mcc.c"
  2813 ;; Parameters:    Size  Location     Type
  2814 ;;		None
  2815 ;; Auto vars:     Size  Location     Type
  2816 ;;		None
  2817 ;; Return value:  Size  Location     Type
  2818 ;;                  1    wreg      void 
  2819 ;; Registers used:
  2820 ;;		wreg, status,2, status,0, pclath, cstack
  2821 ;; Tracked objects:
  2822 ;;		On entry : 0/0
  2823 ;;		On exit  : 0/0
  2824 ;;		Unchanged: 0/0
  2825 ;; Data sizes:     COMMON   BANK0   BANK1   BANK2   BANK3   BANK4   BANK5   BANK6   BANK7   BANK8   BANK9  BANK10  BANK1
      +1  BANK12
  2826 ;;      Params:         0       0       0       0       0       0       0       0       0       0       0       0       
      +0       0
  2827 ;;      Locals:         0       0       0       0       0       0       0       0       0       0       0       0       
      +0       0
  2828 ;;      Temps:          0       0       0       0       0       0       0       0       0       0       0       0       
      +0       0
  2829 ;;      Totals:         0       0       0       0       0       0       0       0       0       0       0       0       
      +0       0
  2830 ;;Total ram usage:        0 bytes
  2831 ;; Hardware stack levels used:    1
  2832 ;; Hardware stack levels required when called:    1
  2833 ;; This function calls:
  2834 ;;		_OSCILLATOR_Initialize
  2835 ;;		_PIN_MANAGER_Initialize
  2836 ;; This function is called by:
  2837 ;;		_main
  2838 ;; This function uses a non-reentrant model
  2839 ;;
  2840                           
  2841                           
  2842                           ;psect for function _SYSTEM_Initialize
  2843  038A                     _SYSTEM_Initialize:	
  2844                           
  2845                           ;mcc.c: 89: PIN_MANAGER_Initialize();
  2846                           
  2847                           ;incstack = 0
  2848                           ; Regs used in _SYSTEM_Initialize: [wreg+status,2+status,0+pclath+cstack]
  2849  038A  3183  23A7  3183   	fcall	_PIN_MANAGER_Initialize
  2850                           
  2851                           ;mcc.c: 90: OSCILLATOR_Initialize();
  2852  038D  3183  2390         	fcall	_OSCILLATOR_Initialize
  2853  038F  0008               	return
  2854  0390                     __end_of_SYSTEM_Initialize:	
  2855                           
  2856                           	psect	text8
  2857  03A7                     __ptext8:	
  2858 ;; *************** function _PIN_MANAGER_Initialize *****************
  2859 ;; Defined at:
  2860 ;;		line 52 in file "mcc_generated_files/pin_manager.c"
  2861 ;; Parameters:    Size  Location     Type
  2862 ;;		None
  2863 ;; Auto vars:     Size  Location     Type
  2864 ;;		None
  2865 ;; Return value:  Size  Location     Type
  2866 ;;                  1    wreg      void 
  2867 ;; Registers used:
  2868 ;;		wreg, status,2
  2869 ;; Tracked objects:
  2870 ;;		On entry : 0/0
  2871 ;;		On exit  : 0/0
  2872 ;;		Unchanged: 0/0
  2873 ;; Data sizes:     COMMON   BANK0   BANK1   BANK2   BANK3   BANK4   BANK5   BANK6   BANK7   BANK8   BANK9  BANK10  BANK1
      +1  BANK12
  2874 ;;      Params:         0       0       0       0       0       0       0       0       0       0       0       0       
      +0       0
  2875 ;;      Locals:         0       0       0       0       0       0       0       0       0       0       0       0       
      +0       0
  2876 ;;      Temps:          0       0       0       0       0       0       0       0       0       0       0       0       
      +0       0
  2877 ;;      Totals:         0       0       0       0       0       0       0       0       0       0       0       0       
      +0       0
  2878 ;;Total ram usage:        0 bytes
  2879 ;; Hardware stack levels used:    1
  2880 ;; This function calls:
  2881 ;;		Nothing
  2882 ;; This function is called by:
  2883 ;;		_SYSTEM_Initialize
  2884 ;; This function uses a non-reentrant model
  2885 ;;
  2886                           
  2887                           
  2888                           ;psect for function _PIN_MANAGER_Initialize
  2889  03A7                     _PIN_MANAGER_Initialize:	
  2890                           
  2891                           ;pin_manager.c: 57: LATA = 0x00;
  2892                           
  2893                           ;incstack = 0
  2894                           ; Regs used in _PIN_MANAGER_Initialize: [wreg+status,2]
  2895  03A7  0140               	movlb	0	; select bank0
  2896  03A8  0198               	clrf	24	;volatile
  2897                           
  2898                           ;pin_manager.c: 58: LATC = 0x00;
  2899  03A9  019A               	clrf	26	;volatile
  2900                           
  2901                           ;pin_manager.c: 63: TRISA = 0x30;
  2902  03AA  3030               	movlw	48
  2903  03AB  0092               	movwf	18	;volatile
  2904                           
  2905                           ;pin_manager.c: 64: TRISC = 0x30;
  2906  03AC  3030               	movlw	48
  2907  03AD  0094               	movwf	20	;volatile
  2908                           
  2909                           ;pin_manager.c: 69: ANSELC = 0x2F;
  2910  03AE  302F               	movlw	47
  2911  03AF  017E               	movlb	62	; select bank62
  2912  03B0  00CE               	movwf	78	;volatile
  2913                           
  2914                           ;pin_manager.c: 70: ANSELA = 0x1F;
  2915  03B1  301F               	movlw	31
  2916  03B2  00B8               	movwf	56	;volatile
  2917                           
  2918                           ;pin_manager.c: 75: WPUA = 0x00;
  2919  03B3  01B9               	clrf	57	;volatile
  2920                           
  2921                           ;pin_manager.c: 76: WPUC = 0x10;
  2922  03B4  3010               	movlw	16
  2923  03B5  00CF               	movwf	79	;volatile
  2924                           
  2925                           ;pin_manager.c: 81: ODCONA = 0x00;
  2926  03B6  01BA               	clrf	58	;volatile
  2927                           
  2928                           ;pin_manager.c: 82: ODCONC = 0x00;
  2929  03B7  01D0               	clrf	80	;volatile
  2930  03B8  0008               	return
  2931  03B9                     __end_of_PIN_MANAGER_Initialize:	
  2932                           
  2933                           	psect	text9
  2934  0390                     __ptext9:	
  2935 ;; *************** function _OSCILLATOR_Initialize *****************
  2936 ;; Defined at:
  2937 ;;		line 93 in file "mcc_generated_files/mcc.c"
  2938 ;; Parameters:    Size  Location     Type
  2939 ;;		None
  2940 ;; Auto vars:     Size  Location     Type
  2941 ;;		None
  2942 ;; Return value:  Size  Location     Type
  2943 ;;                  1    wreg      void 
  2944 ;; Registers used:
  2945 ;;		wreg, status,2
  2946 ;; Tracked objects:
  2947 ;;		On entry : 0/0
  2948 ;;		On exit  : 0/0
  2949 ;;		Unchanged: 0/0
  2950 ;; Data sizes:     COMMON   BANK0   BANK1   BANK2   BANK3   BANK4   BANK5   BANK6   BANK7   BANK8   BANK9  BANK10  BANK1
      +1  BANK12
  2951 ;;      Params:         0       0       0       0       0       0       0       0       0       0       0       0       
      +0       0
  2952 ;;      Locals:         0       0       0       0       0       0       0       0       0       0       0       0       
      +0       0
  2953 ;;      Temps:          0       0       0       0       0       0       0       0       0       0       0       0       
      +0       0
  2954 ;;      Totals:         0       0       0       0       0       0       0       0       0       0       0       0       
      +0       0
  2955 ;;Total ram usage:        0 bytes
  2956 ;; Hardware stack levels used:    1
  2957 ;; This function calls:
  2958 ;;		Nothing
  2959 ;; This function is called by:
  2960 ;;		_SYSTEM_Initialize
  2961 ;; This function uses a non-reentrant model
  2962 ;;
  2963                           
  2964                           
  2965                           ;psect for function _OSCILLATOR_Initialize
  2966  0390                     _OSCILLATOR_Initialize:	
  2967                           
  2968                           ;mcc.c: 96: OSCCON1 = 0x62;
  2969                           
  2970                           ;incstack = 0
  2971                           ; Regs used in _OSCILLATOR_Initialize: [wreg+status,2]
  2972  0390  3062               	movlw	98
  2973  0391  0151               	movlb	17	; select bank17
  2974  0392  008D               	movwf	13	;volatile
  2975                           
  2976                           ;mcc.c: 98: OSCCON3 = 0x00;
  2977  0393  018F               	clrf	15	;volatile
  2978                           
  2979                           ;mcc.c: 100: OSCEN = 0x00;
  2980  0394  0191               	clrf	17	;volatile
  2981                           
  2982                           ;mcc.c: 102: OSCFRQ = 0x02;
  2983  0395  3002               	movlw	2
  2984  0396  0093               	movwf	19	;volatile
  2985                           
  2986                           ;mcc.c: 104: OSCSTAT = 0x00;
  2987  0397  0190               	clrf	16	;volatile
  2988                           
  2989                           ;mcc.c: 106: OSCTUNE = 0x00;
  2990  0398  0192               	clrf	18	;volatile
  2991  0399  0008               	return
  2992  039A                     __end_of_OSCILLATOR_Initialize:	
  2993  007E                     btemp	set	126	;btemp
  2994  007E                     wtemp0	set	126
  2995                           
  2996                           	psect	maintext_split_1
  2997  04EE                     l278:	
  2998                           ;main.c: 228: do { LATCbits.LATC3 = 1; } while(0);
  2999                           
  3000                           ;main.c: 227: case RAILROAD:
  3001                           
  3002  04EE  0140               	movlb	0	; select bank0
  3003  04EF  159A               	bsf	26,3	;volatile
  3004                           
  3005                           ;main.c: 229: do { LATCbits.LATC2 = 0; } while(0);
  3006  04F0  111A               	bcf	26,2	;volatile
  3007                           
  3008                           ;main.c: 230: do { LATCbits.LATC1 = 1; } while(0);
  3009  04F1  149A               	bsf	26,1	;volatile
  3010                           
  3011                           ;main.c: 231: do { LATCbits.LATC0 = 0; } while(0);
  3012  04F2  101A               	bcf	26,0	;volatile
  3013                           
  3014                           ;main.c: 232: do { LATAbits.LATA2 = 1; } while(0);
  3015  04F3  1518               	bsf	24,2	;volatile
  3016                           
  3017                           ;main.c: 233: do { LATAbits.LATA1 = 0; } while(0);
  3018  04F4  1098               	bcf	24,1	;volatile
  3019                           
  3020                           ;main.c: 234: do { LATAbits.LATA0 = 1; } while(0);
  3021  04F5  1418               	bsf	24,0	;volatile
  3022                           
  3023                           ;main.c: 236: delay_ms(200);
  3024  04F6  30C8               	movlw	200
  3025  04F7  00F0               	movwf	delay_ms@milliseconds
  3026  04F8  3000               	movlw	0
  3027  04F9  00F1               	movwf	delay_ms@milliseconds+1
  3028  04FA  3183  239A  3184   	fcall	_delay_ms
  3029                           
  3030                           ;main.c: 237: do { LATCbits.LATC3 = 0; } while(0);
  3031  04FD  0140               	movlb	0	; select bank0
  3032  04FE  119A               	bcf	26,3	;volatile
  3033                           
  3034                           ;main.c: 238: do { LATCbits.LATC2 = 1; } while(0);
  3035  04FF  151A               	bsf	26,2	;volatile
  3036                           
  3037                           ;main.c: 239: do { LATCbits.LATC1 = 0; } while(0);
  3038  0500  109A               	bcf	26,1	;volatile
  3039                           
  3040                           ;main.c: 240: do { LATCbits.LATC0 = 1; } while(0);
  3041  0501  141A               	bsf	26,0	;volatile
  3042                           
  3043                           ;main.c: 241: do { LATAbits.LATA2 = 0; } while(0);
  3044  0502  1118               	bcf	24,2	;volatile
  3045                           
  3046                           ;main.c: 242: do { LATAbits.LATA1 = 1; } while(0);
  3047  0503  1498               	bsf	24,1	;volatile
  3048                           
  3049                           ;main.c: 243: do { LATAbits.LATA0 = 0; } while(0);
  3050  0504  1018               	bcf	24,0	;volatile
  3051                           
  3052                           ;main.c: 245: delay_ms(200);
  3053  0505  30C8               	movlw	200
  3054  0506  00F0               	movwf	delay_ms@milliseconds
  3055  0507  3000               	movlw	0
  3056  0508  00F1               	movwf	delay_ms@milliseconds+1
  3057  0509  3183  239A  3184   	fcall	_delay_ms
  3058  050C                     L8:	
  3059                           
  3060                           ;main.c: 246: break;
  3061  050C  3186  2E1C         	goto	l71
  3062  050E                     l1455:	
  3063                           ;main.c: 247: case TAE:
  3064                           
  3065                           
  3066                           ;main.c: 248: light(1,0,0,0,0,0,0,8);
  3067  050E  3001               	movlw	1
  3068  050F  0140               	movlb	0	; select bank0
  3069  0510  00A0               	movwf	light@l7
  3070  0511  3000               	movlw	0
  3071  0512  00A1               	movwf	light@l7+1
  3072  0513  3000               	movlw	0
  3073  0514  00A2               	movwf	light@l6
  3074  0515  00A3               	movwf	light@l6+1
  3075  0516  3000               	movlw	0
  3076  0517  00A4               	movwf	light@l5
  3077  0518  00A5               	movwf	light@l5+1
  3078  0519  3000               	movlw	0
  3079  051A  00A6               	movwf	light@l4
  3080  051B  00A7               	movwf	light@l4+1
  3081  051C  3000               	movlw	0
  3082  051D  00A8               	movwf	light@l3
  3083  051E  00A9               	movwf	light@l3+1
  3084  051F  3000               	movlw	0
  3085  0520  00AA               	movwf	light@l2
  3086  0521  00AB               	movwf	light@l2+1
  3087  0522  3000               	movlw	0
  3088  0523  00AC               	movwf	light@l1
  3089  0524  00AD               	movwf	light@l1+1
  3090  0525  3008               	movlw	8
  3091  0526  00AE               	movwf	light@d
  3092  0527  3000               	movlw	0
  3093  0528  00AF               	movwf	light@d+1
  3094  0529  3183  23E8  3184   	fcall	_light
  3095                           
  3096                           ;main.c: 249: light(1,0,0,0,0,0,0,8);
  3097  052C  3001               	movlw	1
  3098  052D  0140               	movlb	0	; select bank0
  3099  052E  00A0               	movwf	light@l7
  3100  052F  3000               	movlw	0
  3101  0530  00A1               	movwf	light@l7+1
  3102  0531  3000               	movlw	0
  3103  0532  00A2               	movwf	light@l6
  3104  0533  00A3               	movwf	light@l6+1
  3105  0534  3000               	movlw	0
  3106  0535  00A4               	movwf	light@l5
  3107  0536  00A5               	movwf	light@l5+1
  3108  0537  3000               	movlw	0
  3109  0538  00A6               	movwf	light@l4
  3110  0539  00A7               	movwf	light@l4+1
  3111  053A  3000               	movlw	0
  3112  053B  00A8               	movwf	light@l3
  3113  053C  00A9               	movwf	light@l3+1
  3114  053D  3000               	movlw	0
  3115  053E  00AA               	movwf	light@l2
  3116  053F  00AB               	movwf	light@l2+1
  3117  0540  3000               	movlw	0
  3118  0541  00AC               	movwf	light@l1
  3119  0542  00AD               	movwf	light@l1+1
  3120  0543  3008               	movlw	8
  3121  0544  00AE               	movwf	light@d
  3122  0545  3000               	movlw	0
  3123  0546  00AF               	movwf	light@d+1
  3124  0547  3183  23E8  3184   	fcall	_light
  3125                           
  3126                           ;main.c: 250: light(1,1,1,1,1,1,1,8);
  3127  054A  3001               	movlw	1
  3128  054B  0140               	movlb	0	; select bank0
  3129  054C  00A0               	movwf	light@l7
  3130  054D  3000               	movlw	0
  3131  054E  00A1               	movwf	light@l7+1
  3132  054F  3001               	movlw	1
  3133  0550  00A2               	movwf	light@l6
  3134  0551  3000               	movlw	0
  3135  0552  00A3               	movwf	light@l6+1
  3136  0553  3001               	movlw	1
  3137  0554  00A4               	movwf	light@l5
  3138  0555  3000               	movlw	0
  3139  0556  00A5               	movwf	light@l5+1
  3140  0557  3001               	movlw	1
  3141  0558  00A6               	movwf	light@l4
  3142  0559  3000               	movlw	0
  3143  055A  00A7               	movwf	light@l4+1
  3144  055B  3001               	movlw	1
  3145  055C  00A8               	movwf	light@l3
  3146  055D  3000               	movlw	0
  3147  055E  00A9               	movwf	light@l3+1
  3148  055F  3001               	movlw	1
  3149  0560  00AA               	movwf	light@l2
  3150  0561  3000               	movlw	0
  3151  0562  00AB               	movwf	light@l2+1
  3152  0563  3001               	movlw	1
  3153  0564  00AC               	movwf	light@l1
  3154  0565  3000               	movlw	0
  3155  0566  00AD               	movwf	light@l1+1
  3156  0567  3008               	movlw	8
  3157  0568  00AE               	movwf	light@d
  3158  0569  3000               	movlw	0
  3159  056A  00AF               	movwf	light@d+1
  3160  056B  3183  23E8         	fcall	_light
  3161                           
  3162                           ;main.c: 251: light(1,0,0,0,0,0,0,8);
  3163  056D  3001               	movlw	1
  3164  056E  3185  2D70         	ljmp	L9
  3165                           
  3166                           	psect	maintext_split_2
  3167  0570                     L9:	
  3168  0570  0140               	movlb	0	; select bank0
  3169  0571  00A0               	movwf	light@l7
  3170  0572  3000               	movlw	0
  3171  0573  00A1               	movwf	light@l7+1
  3172  0574  3000               	movlw	0
  3173  0575  00A2               	movwf	light@l6
  3174  0576  00A3               	movwf	light@l6+1
  3175  0577  3000               	movlw	0
  3176  0578  00A4               	movwf	light@l5
  3177  0579  00A5               	movwf	light@l5+1
  3178  057A  3000               	movlw	0
  3179  057B  00A6               	movwf	light@l4
  3180  057C  00A7               	movwf	light@l4+1
  3181  057D  3000               	movlw	0
  3182  057E  00A8               	movwf	light@l3
  3183  057F  00A9               	movwf	light@l3+1
  3184  0580  3000               	movlw	0
  3185  0581  00AA               	movwf	light@l2
  3186  0582  00AB               	movwf	light@l2+1
  3187  0583  3000               	movlw	0
  3188  0584  00AC               	movwf	light@l1
  3189  0585  00AD               	movwf	light@l1+1
  3190  0586  3008               	movlw	8
  3191  0587  00AE               	movwf	light@d
  3192  0588  3000               	movlw	0
  3193  0589  00AF               	movwf	light@d+1
  3194  058A  3183  23E8  3185   	fcall	_light
  3195                           
  3196                           ;main.c: 252: light(1,0,0,0,0,0,0,8);
  3197  058D  3001               	movlw	1
  3198  058E  0140               	movlb	0	; select bank0
  3199  058F  00A0               	movwf	light@l7
  3200  0590  3000               	movlw	0
  3201  0591  00A1               	movwf	light@l7+1
  3202  0592  3000               	movlw	0
  3203  0593  00A2               	movwf	light@l6
  3204  0594  00A3               	movwf	light@l6+1
  3205  0595  3000               	movlw	0
  3206  0596  00A4               	movwf	light@l5
  3207  0597  00A5               	movwf	light@l5+1
  3208  0598  3000               	movlw	0
  3209  0599  00A6               	movwf	light@l4
  3210  059A  00A7               	movwf	light@l4+1
  3211  059B  3000               	movlw	0
  3212  059C  00A8               	movwf	light@l3
  3213  059D  00A9               	movwf	light@l3+1
  3214  059E  3000               	movlw	0
  3215  059F  00AA               	movwf	light@l2
  3216  05A0  00AB               	movwf	light@l2+1
  3217  05A1  3000               	movlw	0
  3218  05A2  00AC               	movwf	light@l1
  3219  05A3  00AD               	movwf	light@l1+1
  3220  05A4  3008               	movlw	8
  3221  05A5  00AE               	movwf	light@d
  3222  05A6  3000               	movlw	0
  3223  05A7  00AF               	movwf	light@d+1
  3224  05A8  3183  23E8  3185   	fcall	_light
  3225                           
  3226                           ;main.c: 253: light(0,0,0,0,0,0,0,16);
  3227  05AB  3000               	movlw	0
  3228  05AC  0140               	movlb	0	; select bank0
  3229  05AD  00A0               	movwf	light@l7
  3230  05AE  00A1               	movwf	light@l7+1
  3231  05AF  3000               	movlw	0
  3232  05B0  00A2               	movwf	light@l6
  3233  05B1  00A3               	movwf	light@l6+1
  3234  05B2  3000               	movlw	0
  3235  05B3  00A4               	movwf	light@l5
  3236  05B4  00A5               	movwf	light@l5+1
  3237  05B5  3000               	movlw	0
  3238  05B6  00A6               	movwf	light@l4
  3239  05B7  00A7               	movwf	light@l4+1
  3240  05B8  3000               	movlw	0
  3241  05B9  00A8               	movwf	light@l3
  3242  05BA  00A9               	movwf	light@l3+1
  3243  05BB  3000               	movlw	0
  3244  05BC  00AA               	movwf	light@l2
  3245  05BD  00AB               	movwf	light@l2+1
  3246  05BE  3000               	movlw	0
  3247  05BF  00AC               	movwf	light@l1
  3248  05C0  00AD               	movwf	light@l1+1
  3249  05C1  3010               	movlw	16
  3250  05C2  00AE               	movwf	light@d
  3251  05C3  3000               	movlw	0
  3252  05C4  00AF               	movwf	light@d+1
  3253  05C5  3183  23E8  3185   	fcall	_light
  3254                           
  3255                           ;main.c: 254: light(1,1,1,1,1,1,1,8);
  3256  05C8  3001               	movlw	1
  3257  05C9  0140               	movlb	0	; select bank0
  3258  05CA  00A0               	movwf	light@l7
  3259  05CB  3000               	movlw	0
  3260  05CC  00A1               	movwf	light@l7+1
  3261  05CD  3001               	movlw	1
  3262  05CE  00A2               	movwf	light@l6
  3263  05CF  3000               	movlw	0
  3264  05D0  00A3               	movwf	light@l6+1
  3265  05D1  3001               	movlw	1
  3266  05D2  00A4               	movwf	light@l5
  3267  05D3  3000               	movlw	0
  3268  05D4  00A5               	movwf	light@l5+1
  3269  05D5  3001               	movlw	1
  3270  05D6  00A6               	movwf	light@l4
  3271  05D7  3000               	movlw	0
  3272  05D8  00A7               	movwf	light@l4+1
  3273  05D9  3001               	movlw	1
  3274  05DA  00A8               	movwf	light@l3
  3275  05DB  3000               	movlw	0
  3276  05DC  00A9               	movwf	light@l3+1
  3277  05DD  3001               	movlw	1
  3278  05DE  00AA               	movwf	light@l2
  3279  05DF  3000               	movlw	0
  3280  05E0  00AB               	movwf	light@l2+1
  3281  05E1  3001               	movlw	1
  3282  05E2  00AC               	movwf	light@l1
  3283  05E3  3000               	movlw	0
  3284  05E4  00AD               	movwf	light@l1+1
  3285  05E5  3008               	movlw	8
  3286  05E6  00AE               	movwf	light@d
  3287  05E7  3000               	movlw	0
  3288  05E8  00AF               	movwf	light@d+1
  3289  05E9  3183  23E8  3185   	fcall	_light
  3290                           
  3291                           ;main.c: 255: light(1,0,0,1,0,0,0,8);
  3292  05EC  3001               	movlw	1
  3293  05ED  0140               	movlb	0	; select bank0
  3294  05EE  00A0               	movwf	light@l7
  3295  05EF  3000               	movlw	0
  3296  05F0  00A1               	movwf	light@l7+1
  3297  05F1  3000               	movlw	0
  3298  05F2  00A2               	movwf	light@l6
  3299  05F3  00A3               	movwf	light@l6+1
  3300  05F4  3000               	movlw	0
  3301  05F5  00A4               	movwf	light@l5
  3302  05F6  00A5               	movwf	light@l5+1
  3303  05F7  3001               	movlw	1
  3304  05F8  00A6               	movwf	light@l4
  3305  05F9  3000               	movlw	0
  3306  05FA  00A7               	movwf	light@l4+1
  3307  05FB  3000               	movlw	0
  3308  05FC  00A8               	movwf	light@l3
  3309  05FD  00A9               	movwf	light@l3+1
  3310  05FE  3000               	movlw	0
  3311  05FF  00AA               	movwf	light@l2
  3312  0600  00AB               	movwf	light@l2+1
  3313  0601  3000               	movlw	0
  3314  0602  00AC               	movwf	light@l1
  3315  0603  00AD               	movwf	light@l1+1
  3316  0604  3008               	movlw	8
  3317  0605  00AE               	movwf	light@d
  3318  0606  3000               	movlw	0
  3319  0607  00AF               	movwf	light@d+1
  3320  0608  3183  23E8         	fcall	_light
  3321                           
  3322                           ;main.c: 256: light(1,0,0,1,0,0,0,8);
  3323  060A  3001               	movlw	1
  3324  060B  3188  280A         	ljmp	L11
  3325                           
  3326                           	psect	maintext_split_3
  3327  080A                     L11:	
  3328  080A  0140               	movlb	0	; select bank0
  3329  080B  00A0               	movwf	light@l7
  3330  080C  3000               	movlw	0
  3331  080D  00A1               	movwf	light@l7+1
  3332  080E  3000               	movlw	0
  3333  080F  00A2               	movwf	light@l6
  3334  0810  00A3               	movwf	light@l6+1
  3335  0811  3000               	movlw	0
  3336  0812  00A4               	movwf	light@l5
  3337  0813  00A5               	movwf	light@l5+1
  3338  0814  3001               	movlw	1
  3339  0815  00A6               	movwf	light@l4
  3340  0816  3000               	movlw	0
  3341  0817  00A7               	movwf	light@l4+1
  3342  0818  3000               	movlw	0
  3343  0819  00A8               	movwf	light@l3
  3344  081A  00A9               	movwf	light@l3+1
  3345  081B  3000               	movlw	0
  3346  081C  00AA               	movwf	light@l2
  3347  081D  00AB               	movwf	light@l2+1
  3348  081E  3000               	movlw	0
  3349  081F  00AC               	movwf	light@l1
  3350  0820  00AD               	movwf	light@l1+1
  3351  0821  3008               	movlw	8
  3352  0822  00AE               	movwf	light@d
  3353  0823  3000               	movlw	0
  3354  0824  00AF               	movwf	light@d+1
  3355  0825  3183  23E8  3188   	fcall	_light
  3356                           
  3357                           ;main.c: 257: light(1,0,0,1,0,0,0,8);
  3358  0828  3001               	movlw	1
  3359  0829  0140               	movlb	0	; select bank0
  3360  082A  00A0               	movwf	light@l7
  3361  082B  3000               	movlw	0
  3362  082C  00A1               	movwf	light@l7+1
  3363  082D  3000               	movlw	0
  3364  082E  00A2               	movwf	light@l6
  3365  082F  00A3               	movwf	light@l6+1
  3366  0830  3000               	movlw	0
  3367  0831  00A4               	movwf	light@l5
  3368  0832  00A5               	movwf	light@l5+1
  3369  0833  3001               	movlw	1
  3370  0834  00A6               	movwf	light@l4
  3371  0835  3000               	movlw	0
  3372  0836  00A7               	movwf	light@l4+1
  3373  0837  3000               	movlw	0
  3374  0838  00A8               	movwf	light@l3
  3375  0839  00A9               	movwf	light@l3+1
  3376  083A  3000               	movlw	0
  3377  083B  00AA               	movwf	light@l2
  3378  083C  00AB               	movwf	light@l2+1
  3379  083D  3000               	movlw	0
  3380  083E  00AC               	movwf	light@l1
  3381  083F  00AD               	movwf	light@l1+1
  3382  0840  3008               	movlw	8
  3383  0841  00AE               	movwf	light@d
  3384  0842  3000               	movlw	0
  3385  0843  00AF               	movwf	light@d+1
  3386  0844  3183  23E8  3188   	fcall	_light
  3387                           
  3388                           ;main.c: 258: light(1,1,1,1,1,1,1,8);
  3389  0847  3001               	movlw	1
  3390  0848  0140               	movlb	0	; select bank0
  3391  0849  00A0               	movwf	light@l7
  3392  084A  3000               	movlw	0
  3393  084B  00A1               	movwf	light@l7+1
  3394  084C  3001               	movlw	1
  3395  084D  00A2               	movwf	light@l6
  3396  084E  3000               	movlw	0
  3397  084F  00A3               	movwf	light@l6+1
  3398  0850  3001               	movlw	1
  3399  0851  00A4               	movwf	light@l5
  3400  0852  3000               	movlw	0
  3401  0853  00A5               	movwf	light@l5+1
  3402  0854  3001               	movlw	1
  3403  0855  00A6               	movwf	light@l4
  3404  0856  3000               	movlw	0
  3405  0857  00A7               	movwf	light@l4+1
  3406  0858  3001               	movlw	1
  3407  0859  00A8               	movwf	light@l3
  3408  085A  3000               	movlw	0
  3409  085B  00A9               	movwf	light@l3+1
  3410  085C  3001               	movlw	1
  3411  085D  00AA               	movwf	light@l2
  3412  085E  3000               	movlw	0
  3413  085F  00AB               	movwf	light@l2+1
  3414  0860  3001               	movlw	1
  3415  0861  00AC               	movwf	light@l1
  3416  0862  3000               	movlw	0
  3417  0863  00AD               	movwf	light@l1+1
  3418  0864  3008               	movlw	8
  3419  0865  00AE               	movwf	light@d
  3420  0866  3000               	movlw	0
  3421  0867  00AF               	movwf	light@d+1
  3422  0868  3183  23E8  3188   	fcall	_light
  3423                           
  3424                           ;main.c: 259: light(0,0,0,0,0,0,0,16);
  3425  086B  3000               	movlw	0
  3426  086C  0140               	movlb	0	; select bank0
  3427  086D  00A0               	movwf	light@l7
  3428  086E  00A1               	movwf	light@l7+1
  3429  086F  3000               	movlw	0
  3430  0870  00A2               	movwf	light@l6
  3431  0871  00A3               	movwf	light@l6+1
  3432  0872  3000               	movlw	0
  3433  0873  00A4               	movwf	light@l5
  3434  0874  00A5               	movwf	light@l5+1
  3435  0875  3000               	movlw	0
  3436  0876  00A6               	movwf	light@l4
  3437  0877  00A7               	movwf	light@l4+1
  3438  0878  3000               	movlw	0
  3439  0879  00A8               	movwf	light@l3
  3440  087A  00A9               	movwf	light@l3+1
  3441  087B  3000               	movlw	0
  3442  087C  00AA               	movwf	light@l2
  3443  087D  00AB               	movwf	light@l2+1
  3444  087E  3000               	movlw	0
  3445  087F  00AC               	movwf	light@l1
  3446  0880  00AD               	movwf	light@l1+1
  3447  0881  3010               	movlw	16
  3448  0882  00AE               	movwf	light@d
  3449  0883  3000               	movlw	0
  3450  0884  00AF               	movwf	light@d+1
  3451  0885  3183  23E8  3188   	fcall	_light
  3452                           
  3453                           ;main.c: 260: light(1,1,1,1,1,1,1,8);
  3454  0888  3001               	movlw	1
  3455  0889  0140               	movlb	0	; select bank0
  3456  088A  00A0               	movwf	light@l7
  3457  088B  3000               	movlw	0
  3458  088C  00A1               	movwf	light@l7+1
  3459  088D  3001               	movlw	1
  3460  088E  00A2               	movwf	light@l6
  3461  088F  3000               	movlw	0
  3462  0890  00A3               	movwf	light@l6+1
  3463  0891  3001               	movlw	1
  3464  0892  00A4               	movwf	light@l5
  3465  0893  3000               	movlw	0
  3466  0894  00A5               	movwf	light@l5+1
  3467  0895  3001               	movlw	1
  3468  0896  00A6               	movwf	light@l4
  3469  0897  3000               	movlw	0
  3470  0898  00A7               	movwf	light@l4+1
  3471  0899  3001               	movlw	1
  3472  089A  00A8               	movwf	light@l3
  3473  089B  3000               	movlw	0
  3474  089C  00A9               	movwf	light@l3+1
  3475  089D  3001               	movlw	1
  3476  089E  00AA               	movwf	light@l2
  3477  089F  3000               	movlw	0
  3478  08A0  00AB               	movwf	light@l2+1
  3479  08A1  3001               	movlw	1
  3480  08A2  00AC               	movwf	light@l1
  3481  08A3  3000               	movlw	0
  3482  08A4  00AD               	movwf	light@l1+1
  3483  08A5  3008               	movlw	8
  3484  08A6  00AE               	movwf	light@d
  3485  08A7  3000               	movlw	0
  3486  08A8  00AF               	movwf	light@d+1
  3487  08A9  3183  23E8  3188   	fcall	_light
  3488                           
  3489                           ;main.c: 261: light(1,0,0,1,0,0,1,8);
  3490  08AC  3001               	movlw	1
  3491  08AD  0140               	movlb	0	; select bank0
  3492  08AE  00A0               	movwf	light@l7
  3493  08AF  3000               	movlw	0
  3494  08B0  00A1               	movwf	light@l7+1
  3495  08B1  3000               	movlw	0
  3496  08B2  00A2               	movwf	light@l6
  3497  08B3  00A3               	movwf	light@l6+1
  3498  08B4  3000               	movlw	0
  3499  08B5  00A4               	movwf	light@l5
  3500  08B6  00A5               	movwf	light@l5+1
  3501  08B7  3001               	movlw	1
  3502  08B8  00A6               	movwf	light@l4
  3503  08B9  3000               	movlw	0
  3504  08BA  00A7               	movwf	light@l4+1
  3505  08BB  3000               	movlw	0
  3506  08BC  00A8               	movwf	light@l3
  3507  08BD  00A9               	movwf	light@l3+1
  3508  08BE  3000               	movlw	0
  3509  08BF  00AA               	movwf	light@l2
  3510  08C0  00AB               	movwf	light@l2+1
  3511  08C1  3001               	movlw	1
  3512  08C2  00AC               	movwf	light@l1
  3513  08C3  3000               	movlw	0
  3514  08C4  00AD               	movwf	light@l1+1
  3515  08C5  3008               	movlw	8
  3516  08C6  00AE               	movwf	light@d
  3517  08C7  3000               	movlw	0
  3518  08C8  00AF               	movwf	light@d+1
  3519  08C9  3183  23E8  3188   	fcall	_light
  3520                           
  3521                           ;main.c: 262: light(1,0,0,1,0,0,1,8);
  3522  08CC  3001               	movlw	1
  3523  08CD  0140               	movlb	0	; select bank0
  3524  08CE  00A0               	movwf	light@l7
  3525  08CF  3000               	movlw	0
  3526  08D0  00A1               	movwf	light@l7+1
  3527  08D1  3000               	movlw	0
  3528  08D2  00A2               	movwf	light@l6
  3529  08D3  00A3               	movwf	light@l6+1
  3530  08D4  3000               	movlw	0
  3531  08D5  00A4               	movwf	light@l5
  3532  08D6  00A5               	movwf	light@l5+1
  3533  08D7  3001               	movlw	1
  3534  08D8  00A6               	movwf	light@l4
  3535  08D9  3000               	movlw	0
  3536  08DA  00A7               	movwf	light@l4+1
  3537  08DB  3000               	movlw	0
  3538  08DC  00A8               	movwf	light@l3
  3539  08DD  00A9               	movwf	light@l3+1
  3540  08DE  3000               	movlw	0
  3541  08DF  00AA               	movwf	light@l2
  3542  08E0  00AB               	movwf	light@l2+1
  3543  08E1  3001               	movlw	1
  3544  08E2  00AC               	movwf	light@l1
  3545  08E3  3000               	movlw	0
  3546  08E4  00AD               	movwf	light@l1+1
  3547  08E5  3008               	movlw	8
  3548  08E6  00AE               	movwf	light@d
  3549  08E7  3000               	movlw	0
  3550  08E8  00AF               	movwf	light@d+1
  3551  08E9  3183  23E8  3188   	fcall	_light
  3552                           
  3553                           ;main.c: 263: light(1,0,0,1,0,0,1,8);
  3554  08EC  3001               	movlw	1
  3555  08ED  0140               	movlb	0	; select bank0
  3556  08EE  00A0               	movwf	light@l7
  3557  08EF  3000               	movlw	0
  3558  08F0  00A1               	movwf	light@l7+1
  3559  08F1  3000               	movlw	0
  3560  08F2  00A2               	movwf	light@l6
  3561  08F3  00A3               	movwf	light@l6+1
  3562  08F4  3000               	movlw	0
  3563  08F5  00A4               	movwf	light@l5
  3564  08F6  00A5               	movwf	light@l5+1
  3565  08F7  3001               	movlw	1
  3566  08F8  00A6               	movwf	light@l4
  3567  08F9  3000               	movlw	0
  3568  08FA  00A7               	movwf	light@l4+1
  3569  08FB  3000               	movlw	0
  3570  08FC  00A8               	movwf	light@l3
  3571  08FD  00A9               	movwf	light@l3+1
  3572  08FE  3000               	movlw	0
  3573  08FF  00AA               	movwf	light@l2
  3574  0900  00AB               	movwf	light@l2+1
  3575  0901  3001               	movlw	1
  3576  0902  00AC               	movwf	light@l1
  3577  0903  3000               	movlw	0
  3578  0904  00AD               	movwf	light@l1+1
  3579  0905  3008               	movlw	8
  3580  0906  00AE               	movwf	light@d
  3581  0907  3000               	movlw	0
  3582  0908  00AF               	movwf	light@d+1
  3583  0909  3183  23E8  3188   	fcall	_light
  3584                           
  3585                           ;main.c: 264: light(1,0,0,1,0,0,1,8);
  3586  090C  3001               	movlw	1
  3587  090D  0140               	movlb	0	; select bank0
  3588  090E  00A0               	movwf	light@l7
  3589  090F  3000               	movlw	0
  3590  0910  00A1               	movwf	light@l7+1
  3591  0911  3000               	movlw	0
  3592  0912  00A2               	movwf	light@l6
  3593  0913  00A3               	movwf	light@l6+1
  3594  0914  3000               	movlw	0
  3595  0915  00A4               	movwf	light@l5
  3596  0916  00A5               	movwf	light@l5+1
  3597  0917  3001               	movlw	1
  3598  0918  00A6               	movwf	light@l4
  3599  0919  3000               	movlw	0
  3600  091A  00A7               	movwf	light@l4+1
  3601  091B  3000               	movlw	0
  3602  091C  00A8               	movwf	light@l3
  3603  091D  00A9               	movwf	light@l3+1
  3604  091E  3000               	movlw	0
  3605  091F  00AA               	movwf	light@l2
  3606  0920  00AB               	movwf	light@l2+1
  3607  0921  3001               	movlw	1
  3608  0922  00AC               	movwf	light@l1
  3609  0923  3000               	movlw	0
  3610  0924  00AD               	movwf	light@l1+1
  3611  0925  3008               	movlw	8
  3612  0926  00AE               	movwf	light@d
  3613  0927  3000               	movlw	0
  3614  0928  00AF               	movwf	light@d+1
  3615  0929  3183  23E8  3188   	fcall	_light
  3616                           
  3617                           ;main.c: 265: light(0,0,0,0,0,0,0,16);
  3618  092C  3000               	movlw	0
  3619  092D  0140               	movlb	0	; select bank0
  3620  092E  00A0               	movwf	light@l7
  3621  092F  00A1               	movwf	light@l7+1
  3622  0930  3000               	movlw	0
  3623  0931  00A2               	movwf	light@l6
  3624  0932  00A3               	movwf	light@l6+1
  3625  0933  3000               	movlw	0
  3626  0934  00A4               	movwf	light@l5
  3627  0935  00A5               	movwf	light@l5+1
  3628  0936  3000               	movlw	0
  3629  0937  00A6               	movwf	light@l4
  3630  0938  00A7               	movwf	light@l4+1
  3631  0939  3000               	movlw	0
  3632  093A  00A8               	movwf	light@l3
  3633  093B  00A9               	movwf	light@l3+1
  3634  093C  3000               	movlw	0
  3635  093D  00AA               	movwf	light@l2
  3636  093E  00AB               	movwf	light@l2+1
  3637  093F  3000               	movlw	0
  3638  0940  00AC               	movwf	light@l1
  3639  0941  00AD               	movwf	light@l1+1
  3640  0942  3010               	movlw	16
  3641  0943  00AE               	movwf	light@d
  3642  0944  3000               	movlw	0
  3643  0945  00AF               	movwf	light@d+1
  3644  0946  3183  23E8  3188   	fcall	_light
  3645                           
  3646                           ;main.c: 266: light(1,1,1,1,1,1,1,8);
  3647  0949  3001               	movlw	1
  3648  094A  0140               	movlb	0	; select bank0
  3649  094B  00A0               	movwf	light@l7
  3650  094C  3000               	movlw	0
  3651  094D  00A1               	movwf	light@l7+1
  3652  094E  3001               	movlw	1
  3653  094F  00A2               	movwf	light@l6
  3654  0950  3000               	movlw	0
  3655  0951  00A3               	movwf	light@l6+1
  3656  0952  3001               	movlw	1
  3657  0953  00A4               	movwf	light@l5
  3658  0954  3000               	movlw	0
  3659  0955  00A5               	movwf	light@l5+1
  3660  0956  3001               	movlw	1
  3661  0957  00A6               	movwf	light@l4
  3662  0958  3000               	movlw	0
  3663  0959  00A7               	movwf	light@l4+1
  3664  095A  3001               	movlw	1
  3665  095B  00A8               	movwf	light@l3
  3666  095C  3000               	movlw	0
  3667  095D  00A9               	movwf	light@l3+1
  3668  095E  3001               	movlw	1
  3669  095F  00AA               	movwf	light@l2
  3670  0960  3000               	movlw	0
  3671  0961  00AB               	movwf	light@l2+1
  3672  0962  3001               	movlw	1
  3673  0963  00AC               	movwf	light@l1
  3674  0964  3000               	movlw	0
  3675  0965  00AD               	movwf	light@l1+1
  3676  0966  3008               	movlw	8
  3677  0967  00AE               	movwf	light@d
  3678  0968  3000               	movlw	0
  3679  0969  00AF               	movwf	light@d+1
  3680  096A  3183  23E8  3188   	fcall	_light
  3681                           
  3682                           ;main.c: 267: light(1,0,0,1,0,0,1,8);
  3683  096D  3001               	movlw	1
  3684  096E  0140               	movlb	0	; select bank0
  3685  096F  00A0               	movwf	light@l7
  3686  0970  3000               	movlw	0
  3687  0971  00A1               	movwf	light@l7+1
  3688  0972  3000               	movlw	0
  3689  0973  00A2               	movwf	light@l6
  3690  0974  00A3               	movwf	light@l6+1
  3691  0975  3000               	movlw	0
  3692  0976  00A4               	movwf	light@l5
  3693  0977  00A5               	movwf	light@l5+1
  3694  0978  3001               	movlw	1
  3695  0979  00A6               	movwf	light@l4
  3696  097A  3000               	movlw	0
  3697  097B  00A7               	movwf	light@l4+1
  3698  097C  3000               	movlw	0
  3699  097D  00A8               	movwf	light@l3
  3700  097E  00A9               	movwf	light@l3+1
  3701  097F  3000               	movlw	0
  3702  0980  00AA               	movwf	light@l2
  3703  0981  00AB               	movwf	light@l2+1
  3704  0982  3001               	movlw	1
  3705  0983  00AC               	movwf	light@l1
  3706  0984  3000               	movlw	0
  3707  0985  00AD               	movwf	light@l1+1
  3708  0986  3008               	movlw	8
  3709  0987  00AE               	movwf	light@d
  3710  0988  3000               	movlw	0
  3711  0989  00AF               	movwf	light@d+1
  3712  098A  3183  23E8  3188   	fcall	_light
  3713                           
  3714                           ;main.c: 268: light(1,0,0,1,0,0,1,8);
  3715  098D  3001               	movlw	1
  3716  098E  0140               	movlb	0	; select bank0
  3717  098F  00A0               	movwf	light@l7
  3718  0990  3000               	movlw	0
  3719  0991  00A1               	movwf	light@l7+1
  3720  0992  3000               	movlw	0
  3721  0993  00A2               	movwf	light@l6
  3722  0994  00A3               	movwf	light@l6+1
  3723  0995  3000               	movlw	0
  3724  0996  00A4               	movwf	light@l5
  3725  0997  00A5               	movwf	light@l5+1
  3726  0998  3001               	movlw	1
  3727  0999  00A6               	movwf	light@l4
  3728  099A  3000               	movlw	0
  3729  099B  00A7               	movwf	light@l4+1
  3730  099C  3000               	movlw	0
  3731  099D  00A8               	movwf	light@l3
  3732  099E  00A9               	movwf	light@l3+1
  3733  099F  3000               	movlw	0
  3734  09A0  00AA               	movwf	light@l2
  3735  09A1  00AB               	movwf	light@l2+1
  3736  09A2  3001               	movlw	1
  3737  09A3  00AC               	movwf	light@l1
  3738  09A4  3000               	movlw	0
  3739  09A5  00AD               	movwf	light@l1+1
  3740  09A6  3008               	movlw	8
  3741  09A7  00AE               	movwf	light@d
  3742  09A8  3000               	movlw	0
  3743  09A9  00AF               	movwf	light@d+1
  3744  09AA  3183  23E8  3188   	fcall	_light
  3745                           
  3746                           ;main.c: 269: light(1,0,0,1,0,0,1,8);
  3747  09AD  3001               	movlw	1
  3748  09AE  0140               	movlb	0	; select bank0
  3749  09AF  00A0               	movwf	light@l7
  3750  09B0  3000               	movlw	0
  3751  09B1  00A1               	movwf	light@l7+1
  3752  09B2  3000               	movlw	0
  3753  09B3  00A2               	movwf	light@l6
  3754  09B4  00A3               	movwf	light@l6+1
  3755  09B5  3000               	movlw	0
  3756  09B6  00A4               	movwf	light@l5
  3757  09B7  00A5               	movwf	light@l5+1
  3758  09B8  3001               	movlw	1
  3759  09B9  00A6               	movwf	light@l4
  3760  09BA  3000               	movlw	0
  3761  09BB  00A7               	movwf	light@l4+1
  3762  09BC  3000               	movlw	0
  3763  09BD  00A8               	movwf	light@l3
  3764  09BE  00A9               	movwf	light@l3+1
  3765  09BF  3000               	movlw	0
  3766  09C0  00AA               	movwf	light@l2
  3767  09C1  00AB               	movwf	light@l2+1
  3768  09C2  3001               	movlw	1
  3769  09C3  00AC               	movwf	light@l1
  3770  09C4  3000               	movlw	0
  3771  09C5  00AD               	movwf	light@l1+1
  3772  09C6  3008               	movlw	8
  3773  09C7  00AE               	movwf	light@d
  3774  09C8  3000               	movlw	0
  3775  09C9  00AF               	movwf	light@d+1
  3776  09CA  3183  23E8  3188   	fcall	_light
  3777                           
  3778                           ;main.c: 270: light(0,1,1,0,1,1,0,16);
  3779  09CD  3000               	movlw	0
  3780  09CE  0140               	movlb	0	; select bank0
  3781  09CF  00A0               	movwf	light@l7
  3782  09D0  00A1               	movwf	light@l7+1
  3783  09D1  3001               	movlw	1
  3784  09D2  00A2               	movwf	light@l6
  3785  09D3  3000               	movlw	0
  3786  09D4  00A3               	movwf	light@l6+1
  3787  09D5  3001               	movlw	1
  3788  09D6  00A4               	movwf	light@l5
  3789  09D7  3000               	movlw	0
  3790  09D8  00A5               	movwf	light@l5+1
  3791  09D9  3000               	movlw	0
  3792  09DA  00A6               	movwf	light@l4
  3793  09DB  00A7               	movwf	light@l4+1
  3794  09DC  3001               	movlw	1
  3795  09DD  00A8               	movwf	light@l3
  3796  09DE  3000               	movlw	0
  3797  09DF  00A9               	movwf	light@l3+1
  3798  09E0  3001               	movlw	1
  3799  09E1  00AA               	movwf	light@l2
  3800  09E2  3000               	movlw	0
  3801  09E3  00AB               	movwf	light@l2+1
  3802  09E4  3000               	movlw	0
  3803  09E5  00AC               	movwf	light@l1
  3804  09E6  00AD               	movwf	light@l1+1
  3805  09E7  3010               	movlw	16
  3806  09E8  00AE               	movwf	light@d
  3807  09E9  3000               	movlw	0
  3808  09EA  00AF               	movwf	light@d+1
  3809  09EB  3183  23E8  3188   	fcall	_light
  3810                           
  3811                           ;main.c: 271: light(0,0,0,0,0,0,0,20);
  3812  09EE  3000               	movlw	0
  3813  09EF  0140               	movlb	0	; select bank0
  3814  09F0  00A0               	movwf	light@l7
  3815  09F1  00A1               	movwf	light@l7+1
  3816  09F2  3000               	movlw	0
  3817  09F3  00A2               	movwf	light@l6
  3818  09F4  00A3               	movwf	light@l6+1
  3819  09F5  3000               	movlw	0
  3820  09F6  00A4               	movwf	light@l5
  3821  09F7  00A5               	movwf	light@l5+1
  3822  09F8  3000               	movlw	0
  3823  09F9  00A6               	movwf	light@l4
  3824  09FA  00A7               	movwf	light@l4+1
  3825  09FB  3000               	movlw	0
  3826  09FC  00A8               	movwf	light@l3
  3827  09FD  00A9               	movwf	light@l3+1
  3828  09FE  3000               	movlw	0
  3829  09FF  00AA               	movwf	light@l2
  3830  0A00  00AB               	movwf	light@l2+1
  3831  0A01  3000               	movlw	0
  3832  0A02  00AC               	movwf	light@l1
  3833  0A03  00AD               	movwf	light@l1+1
  3834  0A04  3014               	movlw	20
  3835  0A05  00AE               	movwf	light@d
  3836  0A06  3000               	movlw	0
  3837  0A07  00AF               	movwf	light@d+1
  3838  0A08  3183  23E8  3188   	fcall	_light
  3839                           
  3840                           ;main.c: 272: light(1,1,1,1,1,1,1,8);
  3841  0A0B  3001               	movlw	1
  3842  0A0C  0140               	movlb	0	; select bank0
  3843  0A0D  00A0               	movwf	light@l7
  3844  0A0E  3000               	movlw	0
  3845  0A0F  00A1               	movwf	light@l7+1
  3846  0A10  3001               	movlw	1
  3847  0A11  00A2               	movwf	light@l6
  3848  0A12  3000               	movlw	0
  3849  0A13  00A3               	movwf	light@l6+1
  3850  0A14  3001               	movlw	1
  3851  0A15  00A4               	movwf	light@l5
  3852  0A16  3000               	movlw	0
  3853  0A17  00A5               	movwf	light@l5+1
  3854  0A18  3001               	movlw	1
  3855  0A19  00A6               	movwf	light@l4
  3856  0A1A  3000               	movlw	0
  3857  0A1B  00A7               	movwf	light@l4+1
  3858  0A1C  3001               	movlw	1
  3859  0A1D  00A8               	movwf	light@l3
  3860  0A1E  3000               	movlw	0
  3861  0A1F  00A9               	movwf	light@l3+1
  3862  0A20  3001               	movlw	1
  3863  0A21  00AA               	movwf	light@l2
  3864  0A22  3000               	movlw	0
  3865  0A23  00AB               	movwf	light@l2+1
  3866  0A24  3001               	movlw	1
  3867  0A25  00AC               	movwf	light@l1
  3868  0A26  3000               	movlw	0
  3869  0A27  00AD               	movwf	light@l1+1
  3870  0A28  3008               	movlw	8
  3871  0A29  00AE               	movwf	light@d
  3872  0A2A  3000               	movlw	0
  3873  0A2B  00AF               	movwf	light@d+1
  3874  0A2C  3183  23E8  3188   	fcall	_light
  3875                           
  3876                           ;main.c: 273: light(1,0,0,0,0,0,1,8);
  3877  0A2F  3001               	movlw	1
  3878  0A30  0140               	movlb	0	; select bank0
  3879  0A31  00A0               	movwf	light@l7
  3880  0A32  3000               	movlw	0
  3881  0A33  00A1               	movwf	light@l7+1
  3882  0A34  3000               	movlw	0
  3883  0A35  00A2               	movwf	light@l6
  3884  0A36  00A3               	movwf	light@l6+1
  3885  0A37  3000               	movlw	0
  3886  0A38  00A4               	movwf	light@l5
  3887  0A39  00A5               	movwf	light@l5+1
  3888  0A3A  3000               	movlw	0
  3889  0A3B  00A6               	movwf	light@l4
  3890  0A3C  00A7               	movwf	light@l4+1
  3891  0A3D  3000               	movlw	0
  3892  0A3E  00A8               	movwf	light@l3
  3893  0A3F  00A9               	movwf	light@l3+1
  3894  0A40  3000               	movlw	0
  3895  0A41  00AA               	movwf	light@l2
  3896  0A42  00AB               	movwf	light@l2+1
  3897  0A43  3001               	movlw	1
  3898  0A44  00AC               	movwf	light@l1
  3899  0A45  3000               	movlw	0
  3900  0A46  00AD               	movwf	light@l1+1
  3901  0A47  3008               	movlw	8
  3902  0A48  00AE               	movwf	light@d
  3903  0A49  3000               	movlw	0
  3904  0A4A  00AF               	movwf	light@d+1
  3905  0A4B  3183  23E8  3188   	fcall	_light
  3906                           
  3907                           ;main.c: 274: light(1,0,0,0,0,0,1,8);
  3908  0A4E  3001               	movlw	1
  3909  0A4F  0140               	movlb	0	; select bank0
  3910  0A50  00A0               	movwf	light@l7
  3911  0A51  3000               	movlw	0
  3912  0A52  00A1               	movwf	light@l7+1
  3913  0A53  3000               	movlw	0
  3914  0A54  00A2               	movwf	light@l6
  3915  0A55  00A3               	movwf	light@l6+1
  3916  0A56  3000               	movlw	0
  3917  0A57  00A4               	movwf	light@l5
  3918  0A58  00A5               	movwf	light@l5+1
  3919  0A59  3000               	movlw	0
  3920  0A5A  00A6               	movwf	light@l4
  3921  0A5B  00A7               	movwf	light@l4+1
  3922  0A5C  3000               	movlw	0
  3923  0A5D  00A8               	movwf	light@l3
  3924  0A5E  00A9               	movwf	light@l3+1
  3925  0A5F  3000               	movlw	0
  3926  0A60  00AA               	movwf	light@l2
  3927  0A61  00AB               	movwf	light@l2+1
  3928  0A62  3001               	movlw	1
  3929  0A63  00AC               	movwf	light@l1
  3930  0A64  3000               	movlw	0
  3931  0A65  00AD               	movwf	light@l1+1
  3932  0A66  3008               	movlw	8
  3933  0A67  00AE               	movwf	light@d
  3934  0A68  3000               	movlw	0
  3935  0A69  00AF               	movwf	light@d+1
  3936  0A6A  3183  23E8  3188   	fcall	_light
  3937                           
  3938                           ;main.c: 275: light(1,0,0,0,0,0,1,8);
  3939  0A6D  3001               	movlw	1
  3940  0A6E  0140               	movlb	0	; select bank0
  3941  0A6F  00A0               	movwf	light@l7
  3942  0A70  3000               	movlw	0
  3943  0A71  00A1               	movwf	light@l7+1
  3944  0A72  3000               	movlw	0
  3945  0A73  00A2               	movwf	light@l6
  3946  0A74  00A3               	movwf	light@l6+1
  3947  0A75  3000               	movlw	0
  3948  0A76  00A4               	movwf	light@l5
  3949  0A77  00A5               	movwf	light@l5+1
  3950  0A78  3000               	movlw	0
  3951  0A79  00A6               	movwf	light@l4
  3952  0A7A  00A7               	movwf	light@l4+1
  3953  0A7B  3000               	movlw	0
  3954  0A7C  00A8               	movwf	light@l3
  3955  0A7D  00A9               	movwf	light@l3+1
  3956  0A7E  3000               	movlw	0
  3957  0A7F  00AA               	movwf	light@l2
  3958  0A80  00AB               	movwf	light@l2+1
  3959  0A81  3001               	movlw	1
  3960  0A82  00AC               	movwf	light@l1
  3961  0A83  3000               	movlw	0
  3962  0A84  00AD               	movwf	light@l1+1
  3963  0A85  3008               	movlw	8
  3964  0A86  00AE               	movwf	light@d
  3965  0A87  3000               	movlw	0
  3966  0A88  00AF               	movwf	light@d+1
  3967  0A89  3183  23E8  3188   	fcall	_light
  3968                           
  3969                           ;main.c: 276: light(1,1,1,1,1,1,1,8);
  3970  0A8C  3001               	movlw	1
  3971  0A8D  0140               	movlb	0	; select bank0
  3972  0A8E  00A0               	movwf	light@l7
  3973  0A8F  3000               	movlw	0
  3974  0A90  00A1               	movwf	light@l7+1
  3975  0A91  3001               	movlw	1
  3976  0A92  00A2               	movwf	light@l6
  3977  0A93  3000               	movlw	0
  3978  0A94  00A3               	movwf	light@l6+1
  3979  0A95  3001               	movlw	1
  3980  0A96  00A4               	movwf	light@l5
  3981  0A97  3000               	movlw	0
  3982  0A98  00A5               	movwf	light@l5+1
  3983  0A99  3001               	movlw	1
  3984  0A9A  00A6               	movwf	light@l4
  3985  0A9B  3000               	movlw	0
  3986  0A9C  00A7               	movwf	light@l4+1
  3987  0A9D  3001               	movlw	1
  3988  0A9E  00A8               	movwf	light@l3
  3989  0A9F  3000               	movlw	0
  3990  0AA0  00A9               	movwf	light@l3+1
  3991  0AA1  3001               	movlw	1
  3992  0AA2  00AA               	movwf	light@l2
  3993  0AA3  3000               	movlw	0
  3994  0AA4  00AB               	movwf	light@l2+1
  3995  0AA5  3001               	movlw	1
  3996  0AA6  00AC               	movwf	light@l1
  3997  0AA7  3000               	movlw	0
  3998  0AA8  00AD               	movwf	light@l1+1
  3999  0AA9  3008               	movlw	8
  4000  0AAA  00AE               	movwf	light@d
  4001  0AAB  3000               	movlw	0
  4002  0AAC  00AF               	movwf	light@d+1
  4003  0AAD  3183  23E8  3188   	fcall	_light
  4004                           
  4005                           ;main.c: 277: light(0,0,0,0,0,0,0,16);
  4006  0AB0  3000               	movlw	0
  4007  0AB1  0140               	movlb	0	; select bank0
  4008  0AB2  00A0               	movwf	light@l7
  4009  0AB3  00A1               	movwf	light@l7+1
  4010  0AB4  3000               	movlw	0
  4011  0AB5  00A2               	movwf	light@l6
  4012  0AB6  00A3               	movwf	light@l6+1
  4013  0AB7  3000               	movlw	0
  4014  0AB8  00A4               	movwf	light@l5
  4015  0AB9  00A5               	movwf	light@l5+1
  4016  0ABA  3000               	movlw	0
  4017  0ABB  00A6               	movwf	light@l4
  4018  0ABC  00A7               	movwf	light@l4+1
  4019  0ABD  3000               	movlw	0
  4020  0ABE  00A8               	movwf	light@l3
  4021  0ABF  00A9               	movwf	light@l3+1
  4022  0AC0  3000               	movlw	0
  4023  0AC1  00AA               	movwf	light@l2
  4024  0AC2  00AB               	movwf	light@l2+1
  4025  0AC3  3000               	movlw	0
  4026  0AC4  00AC               	movwf	light@l1
  4027  0AC5  00AD               	movwf	light@l1+1
  4028  0AC6  3010               	movlw	16
  4029  0AC7  00AE               	movwf	light@d
  4030  0AC8  3000               	movlw	0
  4031  0AC9  00AF               	movwf	light@d+1
  4032  0ACA  3183  23E8  3188   	fcall	_light
  4033                           
  4034                           ;main.c: 278: light(1,1,1,1,1,1,1,8);
  4035  0ACD  3001               	movlw	1
  4036  0ACE  0140               	movlb	0	; select bank0
  4037  0ACF  00A0               	movwf	light@l7
  4038  0AD0  3000               	movlw	0
  4039  0AD1  00A1               	movwf	light@l7+1
  4040  0AD2  3001               	movlw	1
  4041  0AD3  00A2               	movwf	light@l6
  4042  0AD4  3000               	movlw	0
  4043  0AD5  00A3               	movwf	light@l6+1
  4044  0AD6  3001               	movlw	1
  4045  0AD7  00A4               	movwf	light@l5
  4046  0AD8  3000               	movlw	0
  4047  0AD9  00A5               	movwf	light@l5+1
  4048  0ADA  3001               	movlw	1
  4049  0ADB  00A6               	movwf	light@l4
  4050  0ADC  3000               	movlw	0
  4051  0ADD  00A7               	movwf	light@l4+1
  4052  0ADE  3001               	movlw	1
  4053  0ADF  00A8               	movwf	light@l3
  4054  0AE0  3000               	movlw	0
  4055  0AE1  00A9               	movwf	light@l3+1
  4056  0AE2  3001               	movlw	1
  4057  0AE3  00AA               	movwf	light@l2
  4058  0AE4  3000               	movlw	0
  4059  0AE5  00AB               	movwf	light@l2+1
  4060  0AE6  3001               	movlw	1
  4061  0AE7  00AC               	movwf	light@l1
  4062  0AE8  3000               	movlw	0
  4063  0AE9  00AD               	movwf	light@l1+1
  4064  0AEA  3008               	movlw	8
  4065  0AEB  00AE               	movwf	light@d
  4066  0AEC  3000               	movlw	0
  4067  0AED  00AF               	movwf	light@d+1
  4068  0AEE  3183  23E8  3188   	fcall	_light
  4069                           
  4070                           ;main.c: 279: light(0,1,1,0,0,0,1,8);
  4071  0AF1  3000               	movlw	0
  4072  0AF2  0140               	movlb	0	; select bank0
  4073  0AF3  00A0               	movwf	light@l7
  4074  0AF4  00A1               	movwf	light@l7+1
  4075  0AF5  3001               	movlw	1
  4076  0AF6  00A2               	movwf	light@l6
  4077  0AF7  3000               	movlw	0
  4078  0AF8  00A3               	movwf	light@l6+1
  4079  0AF9  3001               	movlw	1
  4080  0AFA  00A4               	movwf	light@l5
  4081  0AFB  3000               	movlw	0
  4082  0AFC  00A5               	movwf	light@l5+1
  4083  0AFD  3000               	movlw	0
  4084  0AFE  00A6               	movwf	light@l4
  4085  0AFF  00A7               	movwf	light@l4+1
  4086  0B00  3000               	movlw	0
  4087  0B01  00A8               	movwf	light@l3
  4088  0B02  00A9               	movwf	light@l3+1
  4089  0B03  3000               	movlw	0
  4090  0B04  00AA               	movwf	light@l2
  4091  0B05  00AB               	movwf	light@l2+1
  4092  0B06  3001               	movlw	1
  4093  0B07  00AC               	movwf	light@l1
  4094  0B08  3000               	movlw	0
  4095  0B09  00AD               	movwf	light@l1+1
  4096  0B0A  3008               	movlw	8
  4097  0B0B  00AE               	movwf	light@d
  4098  0B0C  3000               	movlw	0
  4099  0B0D  00AF               	movwf	light@d+1
  4100  0B0E  3183  23E8  3188   	fcall	_light
  4101                           
  4102                           ;main.c: 280: light(0,0,0,1,0,0,0,8);
  4103  0B11  3000               	movlw	0
  4104  0B12  0140               	movlb	0	; select bank0
  4105  0B13  00A0               	movwf	light@l7
  4106  0B14  00A1               	movwf	light@l7+1
  4107  0B15  3000               	movlw	0
  4108  0B16  00A2               	movwf	light@l6
  4109  0B17  00A3               	movwf	light@l6+1
  4110  0B18  3000               	movlw	0
  4111  0B19  00A4               	movwf	light@l5
  4112  0B1A  00A5               	movwf	light@l5+1
  4113  0B1B  3001               	movlw	1
  4114  0B1C  00A6               	movwf	light@l4
  4115  0B1D  3000               	movlw	0
  4116  0B1E  00A7               	movwf	light@l4+1
  4117  0B1F  3000               	movlw	0
  4118  0B20  00A8               	movwf	light@l3
  4119  0B21  00A9               	movwf	light@l3+1
  4120  0B22  3000               	movlw	0
  4121  0B23  00AA               	movwf	light@l2
  4122  0B24  00AB               	movwf	light@l2+1
  4123  0B25  3000               	movlw	0
  4124  0B26  00AC               	movwf	light@l1
  4125  0B27  00AD               	movwf	light@l1+1
  4126  0B28  3008               	movlw	8
  4127  0B29  00AE               	movwf	light@d
  4128  0B2A  3000               	movlw	0
  4129  0B2B  00AF               	movwf	light@d+1
  4130  0B2C  3183  23E8  3188   	fcall	_light
  4131                           
  4132                           ;main.c: 281: light(0,0,0,0,1,1,0,8);
  4133  0B2F  3000               	movlw	0
  4134  0B30  0140               	movlb	0	; select bank0
  4135  0B31  00A0               	movwf	light@l7
  4136  0B32  00A1               	movwf	light@l7+1
  4137  0B33  3000               	movlw	0
  4138  0B34  00A2               	movwf	light@l6
  4139  0B35  00A3               	movwf	light@l6+1
  4140  0B36  3000               	movlw	0
  4141  0B37  00A4               	movwf	light@l5
  4142  0B38  00A5               	movwf	light@l5+1
  4143  0B39  3000               	movlw	0
  4144  0B3A  00A6               	movwf	light@l4
  4145  0B3B  00A7               	movwf	light@l4+1
  4146  0B3C  3001               	movlw	1
  4147  0B3D  00A8               	movwf	light@l3
  4148  0B3E  3000               	movlw	0
  4149  0B3F  00A9               	movwf	light@l3+1
  4150  0B40  3001               	movlw	1
  4151  0B41  00AA               	movwf	light@l2
  4152  0B42  3000               	movlw	0
  4153  0B43  00AB               	movwf	light@l2+1
  4154  0B44  3000               	movlw	0
  4155  0B45  00AC               	movwf	light@l1
  4156  0B46  00AD               	movwf	light@l1+1
  4157  0B47  3008               	movlw	8
  4158  0B48  00AE               	movwf	light@d
  4159  0B49  3000               	movlw	0
  4160  0B4A  00AF               	movwf	light@d+1
  4161  0B4B  3183  23E8  3188   	fcall	_light
  4162                           
  4163                           ;main.c: 282: light(1,1,1,1,1,1,1,8);
  4164  0B4E  3001               	movlw	1
  4165  0B4F  0140               	movlb	0	; select bank0
  4166  0B50  00A0               	movwf	light@l7
  4167  0B51  3000               	movlw	0
  4168  0B52  00A1               	movwf	light@l7+1
  4169  0B53  3001               	movlw	1
  4170  0B54  00A2               	movwf	light@l6
  4171  0B55  3000               	movlw	0
  4172  0B56  00A3               	movwf	light@l6+1
  4173  0B57  3001               	movlw	1
  4174  0B58  00A4               	movwf	light@l5
  4175  0B59  3000               	movlw	0
  4176  0B5A  00A5               	movwf	light@l5+1
  4177  0B5B  3001               	movlw	1
  4178  0B5C  00A6               	movwf	light@l4
  4179  0B5D  3000               	movlw	0
  4180  0B5E  00A7               	movwf	light@l4+1
  4181  0B5F  3001               	movlw	1
  4182  0B60  00A8               	movwf	light@l3
  4183  0B61  3000               	movlw	0
  4184  0B62  00A9               	movwf	light@l3+1
  4185  0B63  3001               	movlw	1
  4186  0B64  00AA               	movwf	light@l2
  4187  0B65  3000               	movlw	0
  4188  0B66  00AB               	movwf	light@l2+1
  4189  0B67  3001               	movlw	1
  4190  0B68  00AC               	movwf	light@l1
  4191  0B69  3000               	movlw	0
  4192  0B6A  00AD               	movwf	light@l1+1
  4193  0B6B  3008               	movlw	8
  4194  0B6C  00AE               	movwf	light@d
  4195  0B6D  3000               	movlw	0
  4196  0B6E  00AF               	movwf	light@d+1
  4197  0B6F  3183  23E8  3188   	fcall	_light
  4198                           
  4199                           ;main.c: 283: light(0,0,0,0,0,0,0,16);
  4200  0B72  3000               	movlw	0
  4201  0B73  0140               	movlb	0	; select bank0
  4202  0B74  00A0               	movwf	light@l7
  4203  0B75  00A1               	movwf	light@l7+1
  4204  0B76  3000               	movlw	0
  4205  0B77  00A2               	movwf	light@l6
  4206  0B78  00A3               	movwf	light@l6+1
  4207  0B79  3000               	movlw	0
  4208  0B7A  00A4               	movwf	light@l5
  4209  0B7B  00A5               	movwf	light@l5+1
  4210  0B7C  3000               	movlw	0
  4211  0B7D  00A6               	movwf	light@l4
  4212  0B7E  00A7               	movwf	light@l4+1
  4213  0B7F  3000               	movlw	0
  4214  0B80  00A8               	movwf	light@l3
  4215  0B81  00A9               	movwf	light@l3+1
  4216  0B82  3000               	movlw	0
  4217  0B83  00AA               	movwf	light@l2
  4218  0B84  00AB               	movwf	light@l2+1
  4219  0B85  3000               	movlw	0
  4220  0B86  00AC               	movwf	light@l1
  4221  0B87  00AD               	movwf	light@l1+1
  4222  0B88  3010               	movlw	16
  4223  0B89  00AE               	movwf	light@d
  4224  0B8A  3000               	movlw	0
  4225  0B8B  00AF               	movwf	light@d+1
  4226  0B8C  3183  23E8  3188   	fcall	_light
  4227                           
  4228                           ;main.c: 284: light(1,1,1,1,1,1,1,8);
  4229  0B8F  3001               	movlw	1
  4230  0B90  0140               	movlb	0	; select bank0
  4231  0B91  00A0               	movwf	light@l7
  4232  0B92  3000               	movlw	0
  4233  0B93  00A1               	movwf	light@l7+1
  4234  0B94  3001               	movlw	1
  4235  0B95  00A2               	movwf	light@l6
  4236  0B96  3000               	movlw	0
  4237  0B97  00A3               	movwf	light@l6+1
  4238  0B98  3001               	movlw	1
  4239  0B99  00A4               	movwf	light@l5
  4240  0B9A  3000               	movlw	0
  4241  0B9B  00A5               	movwf	light@l5+1
  4242  0B9C  3001               	movlw	1
  4243  0B9D  00A6               	movwf	light@l4
  4244  0B9E  3000               	movlw	0
  4245  0B9F  00A7               	movwf	light@l4+1
  4246  0BA0  3001               	movlw	1
  4247  0BA1  00A8               	movwf	light@l3
  4248  0BA2  3000               	movlw	0
  4249  0BA3  00A9               	movwf	light@l3+1
  4250  0BA4  3001               	movlw	1
  4251  0BA5  00AA               	movwf	light@l2
  4252  0BA6  3000               	movlw	0
  4253  0BA7  00AB               	movwf	light@l2+1
  4254  0BA8  3001               	movlw	1
  4255  0BA9  00AC               	movwf	light@l1
  4256  0BAA  3000               	movlw	0
  4257  0BAB  00AD               	movwf	light@l1+1
  4258  0BAC  3008               	movlw	8
  4259  0BAD  00AE               	movwf	light@d
  4260  0BAE  3000               	movlw	0
  4261  0BAF  00AF               	movwf	light@d+1
  4262  0BB0  3183  23E8  3188   	fcall	_light
  4263                           
  4264                           ;main.c: 285: light(1,0,0,1,0,0,1,8);
  4265  0BB3  3001               	movlw	1
  4266  0BB4  0140               	movlb	0	; select bank0
  4267  0BB5  00A0               	movwf	light@l7
  4268  0BB6  3000               	movlw	0
  4269  0BB7  00A1               	movwf	light@l7+1
  4270  0BB8  3000               	movlw	0
  4271  0BB9  00A2               	movwf	light@l6
  4272  0BBA  00A3               	movwf	light@l6+1
  4273  0BBB  3000               	movlw	0
  4274  0BBC  00A4               	movwf	light@l5
  4275  0BBD  00A5               	movwf	light@l5+1
  4276  0BBE  3001               	movlw	1
  4277  0BBF  00A6               	movwf	light@l4
  4278  0BC0  3000               	movlw	0
  4279  0BC1  00A7               	movwf	light@l4+1
  4280  0BC2  3000               	movlw	0
  4281  0BC3  00A8               	movwf	light@l3
  4282  0BC4  00A9               	movwf	light@l3+1
  4283  0BC5  3000               	movlw	0
  4284  0BC6  00AA               	movwf	light@l2
  4285  0BC7  00AB               	movwf	light@l2+1
  4286  0BC8  3001               	movlw	1
  4287  0BC9  00AC               	movwf	light@l1
  4288  0BCA  3000               	movlw	0
  4289  0BCB  00AD               	movwf	light@l1+1
  4290  0BCC  3008               	movlw	8
  4291  0BCD  00AE               	movwf	light@d
  4292  0BCE  3000               	movlw	0
  4293  0BCF  00AF               	movwf	light@d+1
  4294  0BD0  3183  23E8  3188   	fcall	_light
  4295                           
  4296                           ;main.c: 286: light(1,0,0,1,0,0,1,8);
  4297  0BD3  3001               	movlw	1
  4298  0BD4  0140               	movlb	0	; select bank0
  4299  0BD5  00A0               	movwf	light@l7
  4300  0BD6  3000               	movlw	0
  4301  0BD7  00A1               	movwf	light@l7+1
  4302  0BD8  3000               	movlw	0
  4303  0BD9  00A2               	movwf	light@l6
  4304  0BDA  00A3               	movwf	light@l6+1
  4305  0BDB  3000               	movlw	0
  4306  0BDC  00A4               	movwf	light@l5
  4307  0BDD  00A5               	movwf	light@l5+1
  4308  0BDE  3001               	movlw	1
  4309  0BDF  00A6               	movwf	light@l4
  4310  0BE0  3000               	movlw	0
  4311  0BE1  00A7               	movwf	light@l4+1
  4312  0BE2  3000               	movlw	0
  4313  0BE3  00A8               	movwf	light@l3
  4314  0BE4  00A9               	movwf	light@l3+1
  4315  0BE5  3000               	movlw	0
  4316  0BE6  00AA               	movwf	light@l2
  4317  0BE7  00AB               	movwf	light@l2+1
  4318  0BE8  3001               	movlw	1
  4319  0BE9  00AC               	movwf	light@l1
  4320  0BEA  3000               	movlw	0
  4321  0BEB  00AD               	movwf	light@l1+1
  4322  0BEC  3008               	movlw	8
  4323  0BED  00AE               	movwf	light@d
  4324  0BEE  3000               	movlw	0
  4325  0BEF  00AF               	movwf	light@d+1
  4326  0BF0  3183  23E8  3188   	fcall	_light
  4327                           
  4328                           ;main.c: 287: light(1,0,0,1,1,1,1,8);
  4329  0BF3  3001               	movlw	1
  4330  0BF4  0140               	movlb	0	; select bank0
  4331  0BF5  00A0               	movwf	light@l7
  4332  0BF6  3000               	movlw	0
  4333  0BF7  00A1               	movwf	light@l7+1
  4334  0BF8  3000               	movlw	0
  4335  0BF9  00A2               	movwf	light@l6
  4336  0BFA  00A3               	movwf	light@l6+1
  4337  0BFB  3000               	movlw	0
  4338  0BFC  00A4               	movwf	light@l5
  4339  0BFD  00A5               	movwf	light@l5+1
  4340  0BFE  3001               	movlw	1
  4341  0BFF  00A6               	movwf	light@l4
  4342  0C00  3000               	movlw	0
  4343  0C01  00A7               	movwf	light@l4+1
  4344  0C02  3001               	movlw	1
  4345  0C03  00A8               	movwf	light@l3
  4346  0C04  3000               	movlw	0
  4347  0C05  00A9               	movwf	light@l3+1
  4348  0C06  3001               	movlw	1
  4349  0C07  00AA               	movwf	light@l2
  4350  0C08  3000               	movlw	0
  4351  0C09  00AB               	movwf	light@l2+1
  4352  0C0A  3001               	movlw	1
  4353  0C0B  00AC               	movwf	light@l1
  4354  0C0C  3000               	movlw	0
  4355  0C0D  00AD               	movwf	light@l1+1
  4356  0C0E  3008               	movlw	8
  4357  0C0F  00AE               	movwf	light@d
  4358  0C10  3000               	movlw	0
  4359  0C11  00AF               	movwf	light@d+1
  4360  0C12  3183  23E8  3188   	fcall	_light
  4361                           
  4362                           ;main.c: 288: light(1,1,1,1,1,1,1,8);
  4363  0C15  3001               	movlw	1
  4364  0C16  0140               	movlb	0	; select bank0
  4365  0C17  00A0               	movwf	light@l7
  4366  0C18  3000               	movlw	0
  4367  0C19  00A1               	movwf	light@l7+1
  4368  0C1A  3001               	movlw	1
  4369  0C1B  00A2               	movwf	light@l6
  4370  0C1C  3000               	movlw	0
  4371  0C1D  00A3               	movwf	light@l6+1
  4372  0C1E  3001               	movlw	1
  4373  0C1F  00A4               	movwf	light@l5
  4374  0C20  3000               	movlw	0
  4375  0C21  00A5               	movwf	light@l5+1
  4376  0C22  3001               	movlw	1
  4377  0C23  00A6               	movwf	light@l4
  4378  0C24  3000               	movlw	0
  4379  0C25  00A7               	movwf	light@l4+1
  4380  0C26  3001               	movlw	1
  4381  0C27  00A8               	movwf	light@l3
  4382  0C28  3000               	movlw	0
  4383  0C29  00A9               	movwf	light@l3+1
  4384  0C2A  3001               	movlw	1
  4385  0C2B  00AA               	movwf	light@l2
  4386  0C2C  3000               	movlw	0
  4387  0C2D  00AB               	movwf	light@l2+1
  4388  0C2E  3001               	movlw	1
  4389  0C2F  00AC               	movwf	light@l1
  4390  0C30  3000               	movlw	0
  4391  0C31  00AD               	movwf	light@l1+1
  4392  0C32  3008               	movlw	8
  4393  0C33  00AE               	movwf	light@d
  4394  0C34  3000               	movlw	0
  4395  0C35  00AF               	movwf	light@d+1
  4396  0C36  3183  23E8  3188   	fcall	_light
  4397                           
  4398                           ;main.c: 289: light(0,0,0,0,0,0,0,16);
  4399  0C39  3000               	movlw	0
  4400  0C3A  0140               	movlb	0	; select bank0
  4401  0C3B  00A0               	movwf	light@l7
  4402  0C3C  00A1               	movwf	light@l7+1
  4403  0C3D  3000               	movlw	0
  4404  0C3E  00A2               	movwf	light@l6
  4405  0C3F  00A3               	movwf	light@l6+1
  4406  0C40  3000               	movlw	0
  4407  0C41  00A4               	movwf	light@l5
  4408  0C42  00A5               	movwf	light@l5+1
  4409  0C43  3000               	movlw	0
  4410  0C44  00A6               	movwf	light@l4
  4411  0C45  00A7               	movwf	light@l4+1
  4412  0C46  3000               	movlw	0
  4413  0C47  00A8               	movwf	light@l3
  4414  0C48  00A9               	movwf	light@l3+1
  4415  0C49  3000               	movlw	0
  4416  0C4A  00AA               	movwf	light@l2
  4417  0C4B  00AB               	movwf	light@l2+1
  4418  0C4C  3000               	movlw	0
  4419  0C4D  00AC               	movwf	light@l1
  4420  0C4E  00AD               	movwf	light@l1+1
  4421  0C4F  3010               	movlw	16
  4422  0C50  00AE               	movwf	light@d
  4423  0C51  3000               	movlw	0
  4424  0C52  00AF               	movwf	light@d+1
  4425  0C53  3183  23E8  3188   	fcall	_light
  4426                           
  4427                           ;main.c: 290: light(1,1,1,1,1,1,1,8);
  4428  0C56  3001               	movlw	1
  4429  0C57  0140               	movlb	0	; select bank0
  4430  0C58  00A0               	movwf	light@l7
  4431  0C59  3000               	movlw	0
  4432  0C5A  00A1               	movwf	light@l7+1
  4433  0C5B  3001               	movlw	1
  4434  0C5C  00A2               	movwf	light@l6
  4435  0C5D  3000               	movlw	0
  4436  0C5E  00A3               	movwf	light@l6+1
  4437  0C5F  3001               	movlw	1
  4438  0C60  00A4               	movwf	light@l5
  4439  0C61  3000               	movlw	0
  4440  0C62  00A5               	movwf	light@l5+1
  4441  0C63  3001               	movlw	1
  4442  0C64  00A6               	movwf	light@l4
  4443  0C65  3000               	movlw	0
  4444  0C66  00A7               	movwf	light@l4+1
  4445  0C67  3001               	movlw	1
  4446  0C68  00A8               	movwf	light@l3
  4447  0C69  3000               	movlw	0
  4448  0C6A  00A9               	movwf	light@l3+1
  4449  0C6B  3001               	movlw	1
  4450  0C6C  00AA               	movwf	light@l2
  4451  0C6D  3000               	movlw	0
  4452  0C6E  00AB               	movwf	light@l2+1
  4453  0C6F  3001               	movlw	1
  4454  0C70  00AC               	movwf	light@l1
  4455  0C71  3000               	movlw	0
  4456  0C72  00AD               	movwf	light@l1+1
  4457  0C73  3008               	movlw	8
  4458  0C74  00AE               	movwf	light@d
  4459  0C75  3000               	movlw	0
  4460  0C76  00AF               	movwf	light@d+1
  4461  0C77  3183  23E8  3188   	fcall	_light
  4462                           
  4463                           ;main.c: 291: light(1,0,0,1,0,0,1,8);
  4464  0C7A  3001               	movlw	1
  4465  0C7B  0140               	movlb	0	; select bank0
  4466  0C7C  00A0               	movwf	light@l7
  4467  0C7D  3000               	movlw	0
  4468  0C7E  00A1               	movwf	light@l7+1
  4469  0C7F  3000               	movlw	0
  4470  0C80  00A2               	movwf	light@l6
  4471  0C81  00A3               	movwf	light@l6+1
  4472  0C82  3000               	movlw	0
  4473  0C83  00A4               	movwf	light@l5
  4474  0C84  00A5               	movwf	light@l5+1
  4475  0C85  3001               	movlw	1
  4476  0C86  00A6               	movwf	light@l4
  4477  0C87  3000               	movlw	0
  4478  0C88  00A7               	movwf	light@l4+1
  4479  0C89  3000               	movlw	0
  4480  0C8A  00A8               	movwf	light@l3
  4481  0C8B  00A9               	movwf	light@l3+1
  4482  0C8C  3000               	movlw	0
  4483  0C8D  00AA               	movwf	light@l2
  4484  0C8E  00AB               	movwf	light@l2+1
  4485  0C8F  3001               	movlw	1
  4486  0C90  00AC               	movwf	light@l1
  4487  0C91  3000               	movlw	0
  4488  0C92  00AD               	movwf	light@l1+1
  4489  0C93  3008               	movlw	8
  4490  0C94  00AE               	movwf	light@d
  4491  0C95  3000               	movlw	0
  4492  0C96  00AF               	movwf	light@d+1
  4493  0C97  3183  23E8  3188   	fcall	_light
  4494                           
  4495                           ;main.c: 292: light(1,0,0,1,0,0,1,8);
  4496  0C9A  3001               	movlw	1
  4497  0C9B  0140               	movlb	0	; select bank0
  4498  0C9C  00A0               	movwf	light@l7
  4499  0C9D  3000               	movlw	0
  4500  0C9E  00A1               	movwf	light@l7+1
  4501  0C9F  3000               	movlw	0
  4502  0CA0  00A2               	movwf	light@l6
  4503  0CA1  00A3               	movwf	light@l6+1
  4504  0CA2  3000               	movlw	0
  4505  0CA3  00A4               	movwf	light@l5
  4506  0CA4  00A5               	movwf	light@l5+1
  4507  0CA5  3001               	movlw	1
  4508  0CA6  00A6               	movwf	light@l4
  4509  0CA7  3000               	movlw	0
  4510  0CA8  00A7               	movwf	light@l4+1
  4511  0CA9  3000               	movlw	0
  4512  0CAA  00A8               	movwf	light@l3
  4513  0CAB  00A9               	movwf	light@l3+1
  4514  0CAC  3000               	movlw	0
  4515  0CAD  00AA               	movwf	light@l2
  4516  0CAE  00AB               	movwf	light@l2+1
  4517  0CAF  3001               	movlw	1
  4518  0CB0  00AC               	movwf	light@l1
  4519  0CB1  3000               	movlw	0
  4520  0CB2  00AD               	movwf	light@l1+1
  4521  0CB3  3008               	movlw	8
  4522  0CB4  00AE               	movwf	light@d
  4523  0CB5  3000               	movlw	0
  4524  0CB6  00AF               	movwf	light@d+1
  4525  0CB7  3183  23E8  3188   	fcall	_light
  4526                           
  4527                           ;main.c: 293: light(1,0,0,1,1,1,1,8);
  4528  0CBA  3001               	movlw	1
  4529  0CBB  0140               	movlb	0	; select bank0
  4530  0CBC  00A0               	movwf	light@l7
  4531  0CBD  3000               	movlw	0
  4532  0CBE  00A1               	movwf	light@l7+1
  4533  0CBF  3000               	movlw	0
  4534  0CC0  00A2               	movwf	light@l6
  4535  0CC1  00A3               	movwf	light@l6+1
  4536  0CC2  3000               	movlw	0
  4537  0CC3  00A4               	movwf	light@l5
  4538  0CC4  00A5               	movwf	light@l5+1
  4539  0CC5  3001               	movlw	1
  4540  0CC6  00A6               	movwf	light@l4
  4541  0CC7  3000               	movlw	0
  4542  0CC8  00A7               	movwf	light@l4+1
  4543  0CC9  3001               	movlw	1
  4544  0CCA  00A8               	movwf	light@l3
  4545  0CCB  3000               	movlw	0
  4546  0CCC  00A9               	movwf	light@l3+1
  4547  0CCD  3001               	movlw	1
  4548  0CCE  00AA               	movwf	light@l2
  4549  0CCF  3000               	movlw	0
  4550  0CD0  00AB               	movwf	light@l2+1
  4551  0CD1  3001               	movlw	1
  4552  0CD2  00AC               	movwf	light@l1
  4553  0CD3  3000               	movlw	0
  4554  0CD4  00AD               	movwf	light@l1+1
  4555  0CD5  3008               	movlw	8
  4556  0CD6  00AE               	movwf	light@d
  4557  0CD7  3000               	movlw	0
  4558  0CD8  00AF               	movwf	light@d+1
  4559  0CD9  3183  23E8  3188   	fcall	_light
  4560                           
  4561                           ;main.c: 294: light(1,1,1,1,1,1,1,8);
  4562  0CDC  3001               	movlw	1
  4563  0CDD  0140               	movlb	0	; select bank0
  4564  0CDE  00A0               	movwf	light@l7
  4565  0CDF  3000               	movlw	0
  4566  0CE0  00A1               	movwf	light@l7+1
  4567  0CE1  3001               	movlw	1
  4568  0CE2  00A2               	movwf	light@l6
  4569  0CE3  3000               	movlw	0
  4570  0CE4  00A3               	movwf	light@l6+1
  4571  0CE5  3001               	movlw	1
  4572  0CE6  00A4               	movwf	light@l5
  4573  0CE7  3000               	movlw	0
  4574  0CE8  00A5               	movwf	light@l5+1
  4575  0CE9  3001               	movlw	1
  4576  0CEA  00A6               	movwf	light@l4
  4577  0CEB  3000               	movlw	0
  4578  0CEC  00A7               	movwf	light@l4+1
  4579  0CED  3001               	movlw	1
  4580  0CEE  00A8               	movwf	light@l3
  4581  0CEF  3000               	movlw	0
  4582  0CF0  00A9               	movwf	light@l3+1
  4583  0CF1  3001               	movlw	1
  4584  0CF2  00AA               	movwf	light@l2
  4585  0CF3  3000               	movlw	0
  4586  0CF4  00AB               	movwf	light@l2+1
  4587  0CF5  3001               	movlw	1
  4588  0CF6  00AC               	movwf	light@l1
  4589  0CF7  3000               	movlw	0
  4590  0CF8  00AD               	movwf	light@l1+1
  4591  0CF9  3008               	movlw	8
  4592  0CFA  00AE               	movwf	light@d
  4593  0CFB  3000               	movlw	0
  4594  0CFC  00AF               	movwf	light@d+1
  4595  0CFD  3183  23E8  3188   	fcall	_light
  4596                           
  4597                           ;main.c: 295: light(0,0,0,0,0,0,0,16);
  4598  0D00  3000               	movlw	0
  4599  0D01  0140               	movlb	0	; select bank0
  4600  0D02  00A0               	movwf	light@l7
  4601  0D03  00A1               	movwf	light@l7+1
  4602  0D04  3000               	movlw	0
  4603  0D05  00A2               	movwf	light@l6
  4604  0D06  00A3               	movwf	light@l6+1
  4605  0D07  3000               	movlw	0
  4606  0D08  00A4               	movwf	light@l5
  4607  0D09  00A5               	movwf	light@l5+1
  4608  0D0A  3000               	movlw	0
  4609  0D0B  00A6               	movwf	light@l4
  4610  0D0C  00A7               	movwf	light@l4+1
  4611  0D0D  3000               	movlw	0
  4612  0D0E  00A8               	movwf	light@l3
  4613  0D0F  00A9               	movwf	light@l3+1
  4614  0D10  3000               	movlw	0
  4615  0D11  00AA               	movwf	light@l2
  4616  0D12  00AB               	movwf	light@l2+1
  4617  0D13  3000               	movlw	0
  4618  0D14  00AC               	movwf	light@l1
  4619  0D15  00AD               	movwf	light@l1+1
  4620  0D16  3010               	movlw	16
  4621  0D17  00AE               	movwf	light@d
  4622  0D18  3000               	movlw	0
  4623  0D19  00AF               	movwf	light@d+1
  4624  0D1A  3183  23E8  3188   	fcall	_light
  4625                           
  4626                           ;main.c: 296: light(1,1,1,1,1,1,1,8);
  4627  0D1D  3001               	movlw	1
  4628  0D1E  0140               	movlb	0	; select bank0
  4629  0D1F  00A0               	movwf	light@l7
  4630  0D20  3000               	movlw	0
  4631  0D21  00A1               	movwf	light@l7+1
  4632  0D22  3001               	movlw	1
  4633  0D23  00A2               	movwf	light@l6
  4634  0D24  3000               	movlw	0
  4635  0D25  00A3               	movwf	light@l6+1
  4636  0D26  3001               	movlw	1
  4637  0D27  00A4               	movwf	light@l5
  4638  0D28  3000               	movlw	0
  4639  0D29  00A5               	movwf	light@l5+1
  4640  0D2A  3001               	movlw	1
  4641  0D2B  00A6               	movwf	light@l4
  4642  0D2C  3000               	movlw	0
  4643  0D2D  00A7               	movwf	light@l4+1
  4644  0D2E  3001               	movlw	1
  4645  0D2F  00A8               	movwf	light@l3
  4646  0D30  3000               	movlw	0
  4647  0D31  00A9               	movwf	light@l3+1
  4648  0D32  3001               	movlw	1
  4649  0D33  00AA               	movwf	light@l2
  4650  0D34  3000               	movlw	0
  4651  0D35  00AB               	movwf	light@l2+1
  4652  0D36  3001               	movlw	1
  4653  0D37  00AC               	movwf	light@l1
  4654  0D38  3000               	movlw	0
  4655  0D39  00AD               	movwf	light@l1+1
  4656  0D3A  3008               	movlw	8
  4657  0D3B  00AE               	movwf	light@d
  4658  0D3C  3000               	movlw	0
  4659  0D3D  00AF               	movwf	light@d+1
  4660  0D3E  3183  23E8  3188   	fcall	_light
  4661                           
  4662                           ;main.c: 297: light(1,0,0,1,0,0,0,8);
  4663  0D41  3001               	movlw	1
  4664  0D42  0140               	movlb	0	; select bank0
  4665  0D43  00A0               	movwf	light@l7
  4666  0D44  3000               	movlw	0
  4667  0D45  00A1               	movwf	light@l7+1
  4668  0D46  3000               	movlw	0
  4669  0D47  00A2               	movwf	light@l6
  4670  0D48  00A3               	movwf	light@l6+1
  4671  0D49  3000               	movlw	0
  4672  0D4A  00A4               	movwf	light@l5
  4673  0D4B  00A5               	movwf	light@l5+1
  4674  0D4C  3001               	movlw	1
  4675  0D4D  00A6               	movwf	light@l4
  4676  0D4E  3000               	movlw	0
  4677  0D4F  00A7               	movwf	light@l4+1
  4678  0D50  3000               	movlw	0
  4679  0D51  00A8               	movwf	light@l3
  4680  0D52  00A9               	movwf	light@l3+1
  4681  0D53  3000               	movlw	0
  4682  0D54  00AA               	movwf	light@l2
  4683  0D55  00AB               	movwf	light@l2+1
  4684  0D56  3000               	movlw	0
  4685  0D57  00AC               	movwf	light@l1
  4686  0D58  00AD               	movwf	light@l1+1
  4687  0D59  3008               	movlw	8
  4688  0D5A  00AE               	movwf	light@d
  4689  0D5B  3000               	movlw	0
  4690  0D5C  00AF               	movwf	light@d+1
  4691  0D5D  3183  23E8  3188   	fcall	_light
  4692                           
  4693                           ;main.c: 298: light(1,0,0,1,0,0,0,8);
  4694  0D60  3001               	movlw	1
  4695  0D61  0140               	movlb	0	; select bank0
  4696  0D62  00A0               	movwf	light@l7
  4697  0D63  3000               	movlw	0
  4698  0D64  00A1               	movwf	light@l7+1
  4699  0D65  3000               	movlw	0
  4700  0D66  00A2               	movwf	light@l6
  4701  0D67  00A3               	movwf	light@l6+1
  4702  0D68  3000               	movlw	0
  4703  0D69  00A4               	movwf	light@l5
  4704  0D6A  00A5               	movwf	light@l5+1
  4705  0D6B  3001               	movlw	1
  4706  0D6C  00A6               	movwf	light@l4
  4707  0D6D  3000               	movlw	0
  4708  0D6E  00A7               	movwf	light@l4+1
  4709  0D6F  3000               	movlw	0
  4710  0D70  00A8               	movwf	light@l3
  4711  0D71  00A9               	movwf	light@l3+1
  4712  0D72  3000               	movlw	0
  4713  0D73  00AA               	movwf	light@l2
  4714  0D74  00AB               	movwf	light@l2+1
  4715  0D75  3000               	movlw	0
  4716  0D76  00AC               	movwf	light@l1
  4717  0D77  00AD               	movwf	light@l1+1
  4718  0D78  3008               	movlw	8
  4719  0D79  00AE               	movwf	light@d
  4720  0D7A  3000               	movlw	0
  4721  0D7B  00AF               	movwf	light@d+1
  4722  0D7C  3183  23E8  3188   	fcall	_light
  4723                           
  4724                           ;main.c: 299: light(1,0,0,1,0,0,0,8);
  4725  0D7F  3001               	movlw	1
  4726  0D80  0140               	movlb	0	; select bank0
  4727  0D81  00A0               	movwf	light@l7
  4728  0D82  3000               	movlw	0
  4729  0D83  00A1               	movwf	light@l7+1
  4730  0D84  3000               	movlw	0
  4731  0D85  00A2               	movwf	light@l6
  4732  0D86  00A3               	movwf	light@l6+1
  4733  0D87  3000               	movlw	0
  4734  0D88  00A4               	movwf	light@l5
  4735  0D89  00A5               	movwf	light@l5+1
  4736  0D8A  3001               	movlw	1
  4737  0D8B  00A6               	movwf	light@l4
  4738  0D8C  3000               	movlw	0
  4739  0D8D  00A7               	movwf	light@l4+1
  4740  0D8E  3000               	movlw	0
  4741  0D8F  00A8               	movwf	light@l3
  4742  0D90  00A9               	movwf	light@l3+1
  4743  0D91  3000               	movlw	0
  4744  0D92  00AA               	movwf	light@l2
  4745  0D93  00AB               	movwf	light@l2+1
  4746  0D94  3000               	movlw	0
  4747  0D95  00AC               	movwf	light@l1
  4748  0D96  00AD               	movwf	light@l1+1
  4749  0D97  3008               	movlw	8
  4750  0D98  00AE               	movwf	light@d
  4751  0D99  3000               	movlw	0
  4752  0D9A  00AF               	movwf	light@d+1
  4753  0D9B  3183  23E8  3188   	fcall	_light
  4754                           
  4755                           ;main.c: 300: light(1,1,1,1,1,1,1,8);
  4756  0D9E  3001               	movlw	1
  4757  0D9F  0140               	movlb	0	; select bank0
  4758  0DA0  00A0               	movwf	light@l7
  4759  0DA1  3000               	movlw	0
  4760  0DA2  00A1               	movwf	light@l7+1
  4761  0DA3  3001               	movlw	1
  4762  0DA4  00A2               	movwf	light@l6
  4763  0DA5  3000               	movlw	0
  4764  0DA6  00A3               	movwf	light@l6+1
  4765  0DA7  3001               	movlw	1
  4766  0DA8  00A4               	movwf	light@l5
  4767  0DA9  3000               	movlw	0
  4768  0DAA  00A5               	movwf	light@l5+1
  4769  0DAB  3001               	movlw	1
  4770  0DAC  00A6               	movwf	light@l4
  4771  0DAD  3000               	movlw	0
  4772  0DAE  00A7               	movwf	light@l4+1
  4773  0DAF  3001               	movlw	1
  4774  0DB0  00A8               	movwf	light@l3
  4775  0DB1  3000               	movlw	0
  4776  0DB2  00A9               	movwf	light@l3+1
  4777  0DB3  3001               	movlw	1
  4778  0DB4  00AA               	movwf	light@l2
  4779  0DB5  3000               	movlw	0
  4780  0DB6  00AB               	movwf	light@l2+1
  4781  0DB7  3001               	movlw	1
  4782  0DB8  00AC               	movwf	light@l1
  4783  0DB9  3000               	movlw	0
  4784  0DBA  00AD               	movwf	light@l1+1
  4785  0DBB  3008               	movlw	8
  4786  0DBC  00AE               	movwf	light@d
  4787  0DBD  3000               	movlw	0
  4788  0DBE  00AF               	movwf	light@d+1
  4789  0DBF  3183  23E8  3188   	fcall	_light
  4790                           
  4791                           ;main.c: 301: light(0,0,0,0,0,0,0,16);
  4792  0DC2  3000               	movlw	0
  4793  0DC3  0140               	movlb	0	; select bank0
  4794  0DC4  00A0               	movwf	light@l7
  4795  0DC5  00A1               	movwf	light@l7+1
  4796  0DC6  3000               	movlw	0
  4797  0DC7  00A2               	movwf	light@l6
  4798  0DC8  00A3               	movwf	light@l6+1
  4799  0DC9  3000               	movlw	0
  4800  0DCA  00A4               	movwf	light@l5
  4801  0DCB  00A5               	movwf	light@l5+1
  4802  0DCC  3000               	movlw	0
  4803  0DCD  00A6               	movwf	light@l4
  4804  0DCE  00A7               	movwf	light@l4+1
  4805  0DCF  3000               	movlw	0
  4806  0DD0  00A8               	movwf	light@l3
  4807  0DD1  00A9               	movwf	light@l3+1
  4808  0DD2  3000               	movlw	0
  4809  0DD3  00AA               	movwf	light@l2
  4810  0DD4  00AB               	movwf	light@l2+1
  4811  0DD5  3000               	movlw	0
  4812  0DD6  00AC               	movwf	light@l1
  4813  0DD7  00AD               	movwf	light@l1+1
  4814  0DD8  3010               	movlw	16
  4815  0DD9  00AE               	movwf	light@d
  4816  0DDA  3000               	movlw	0
  4817  0DDB  00AF               	movwf	light@d+1
  4818  0DDC  3183  23E8  3188   	fcall	_light
  4819                           
  4820                           ;main.c: 302: light(1,1,1,1,1,1,1,8);
  4821  0DDF  3001               	movlw	1
  4822  0DE0  0140               	movlb	0	; select bank0
  4823  0DE1  00A0               	movwf	light@l7
  4824  0DE2  3000               	movlw	0
  4825  0DE3  00A1               	movwf	light@l7+1
  4826  0DE4  3001               	movlw	1
  4827  0DE5  00A2               	movwf	light@l6
  4828  0DE6  3000               	movlw	0
  4829  0DE7  00A3               	movwf	light@l6+1
  4830  0DE8  3001               	movlw	1
  4831  0DE9  00A4               	movwf	light@l5
  4832  0DEA  3000               	movlw	0
  4833  0DEB  00A5               	movwf	light@l5+1
  4834  0DEC  3001               	movlw	1
  4835  0DED  00A6               	movwf	light@l4
  4836  0DEE  3000               	movlw	0
  4837  0DEF  00A7               	movwf	light@l4+1
  4838  0DF0  3001               	movlw	1
  4839  0DF1  00A8               	movwf	light@l3
  4840  0DF2  3000               	movlw	0
  4841  0DF3  00A9               	movwf	light@l3+1
  4842  0DF4  3001               	movlw	1
  4843  0DF5  00AA               	movwf	light@l2
  4844  0DF6  3000               	movlw	0
  4845  0DF7  00AB               	movwf	light@l2+1
  4846  0DF8  3001               	movlw	1
  4847  0DF9  00AC               	movwf	light@l1
  4848  0DFA  3000               	movlw	0
  4849  0DFB  00AD               	movwf	light@l1+1
  4850  0DFC  3008               	movlw	8
  4851  0DFD  00AE               	movwf	light@d
  4852  0DFE  3000               	movlw	0
  4853  0DFF  00AF               	movwf	light@d+1
  4854  0E00  3183  23E8  3188   	fcall	_light
  4855                           
  4856                           ;main.c: 303: light(0,1,1,0,0,0,1,8);
  4857  0E03  3000               	movlw	0
  4858  0E04  0140               	movlb	0	; select bank0
  4859  0E05  00A0               	movwf	light@l7
  4860  0E06  00A1               	movwf	light@l7+1
  4861  0E07  3001               	movlw	1
  4862  0E08  00A2               	movwf	light@l6
  4863  0E09  3000               	movlw	0
  4864  0E0A  00A3               	movwf	light@l6+1
  4865  0E0B  3001               	movlw	1
  4866  0E0C  00A4               	movwf	light@l5
  4867  0E0D  3000               	movlw	0
  4868  0E0E  00A5               	movwf	light@l5+1
  4869  0E0F  3000               	movlw	0
  4870  0E10  00A6               	movwf	light@l4
  4871  0E11  00A7               	movwf	light@l4+1
  4872  0E12  3000               	movlw	0
  4873  0E13  00A8               	movwf	light@l3
  4874  0E14  00A9               	movwf	light@l3+1
  4875  0E15  3000               	movlw	0
  4876  0E16  00AA               	movwf	light@l2
  4877  0E17  00AB               	movwf	light@l2+1
  4878  0E18  3001               	movlw	1
  4879  0E19  00AC               	movwf	light@l1
  4880  0E1A  3000               	movlw	0
  4881  0E1B  00AD               	movwf	light@l1+1
  4882  0E1C  3008               	movlw	8
  4883  0E1D  00AE               	movwf	light@d
  4884  0E1E  3000               	movlw	0
  4885  0E1F  00AF               	movwf	light@d+1
  4886  0E20  3183  23E8  3188   	fcall	_light
  4887                           
  4888                           ;main.c: 304: light(0,0,0,1,0,0,0,8);
  4889  0E23  3000               	movlw	0
  4890  0E24  0140               	movlb	0	; select bank0
  4891  0E25  00A0               	movwf	light@l7
  4892  0E26  00A1               	movwf	light@l7+1
  4893  0E27  3000               	movlw	0
  4894  0E28  00A2               	movwf	light@l6
  4895  0E29  00A3               	movwf	light@l6+1
  4896  0E2A  3000               	movlw	0
  4897  0E2B  00A4               	movwf	light@l5
  4898  0E2C  00A5               	movwf	light@l5+1
  4899  0E2D  3001               	movlw	1
  4900  0E2E  00A6               	movwf	light@l4
  4901  0E2F  3000               	movlw	0
  4902  0E30  00A7               	movwf	light@l4+1
  4903  0E31  3000               	movlw	0
  4904  0E32  00A8               	movwf	light@l3
  4905  0E33  00A9               	movwf	light@l3+1
  4906  0E34  3000               	movlw	0
  4907  0E35  00AA               	movwf	light@l2
  4908  0E36  00AB               	movwf	light@l2+1
  4909  0E37  3000               	movlw	0
  4910  0E38  00AC               	movwf	light@l1
  4911  0E39  00AD               	movwf	light@l1+1
  4912  0E3A  3008               	movlw	8
  4913  0E3B  00AE               	movwf	light@d
  4914  0E3C  3000               	movlw	0
  4915  0E3D  00AF               	movwf	light@d+1
  4916  0E3E  3183  23E8  3188   	fcall	_light
  4917                           
  4918                           ;main.c: 305: light(0,0,0,0,1,1,0,8);
  4919  0E41  3000               	movlw	0
  4920  0E42  0140               	movlb	0	; select bank0
  4921  0E43  00A0               	movwf	light@l7
  4922  0E44  00A1               	movwf	light@l7+1
  4923  0E45  3000               	movlw	0
  4924  0E46  00A2               	movwf	light@l6
  4925  0E47  00A3               	movwf	light@l6+1
  4926  0E48  3000               	movlw	0
  4927  0E49  00A4               	movwf	light@l5
  4928  0E4A  00A5               	movwf	light@l5+1
  4929  0E4B  3000               	movlw	0
  4930  0E4C  00A6               	movwf	light@l4
  4931  0E4D  00A7               	movwf	light@l4+1
  4932  0E4E  3001               	movlw	1
  4933  0E4F  00A8               	movwf	light@l3
  4934  0E50  3000               	movlw	0
  4935  0E51  00A9               	movwf	light@l3+1
  4936  0E52  3001               	movlw	1
  4937  0E53  00AA               	movwf	light@l2
  4938  0E54  3000               	movlw	0
  4939  0E55  00AB               	movwf	light@l2+1
  4940  0E56  3000               	movlw	0
  4941  0E57  00AC               	movwf	light@l1
  4942  0E58  00AD               	movwf	light@l1+1
  4943  0E59  3008               	movlw	8
  4944  0E5A  00AE               	movwf	light@d
  4945  0E5B  3000               	movlw	0
  4946  0E5C  00AF               	movwf	light@d+1
  4947  0E5D  3183  23E8  3188   	fcall	_light
  4948                           
  4949                           ;main.c: 306: light(1,1,1,1,1,1,1,8);
  4950  0E60  3001               	movlw	1
  4951  0E61  0140               	movlb	0	; select bank0
  4952  0E62  00A0               	movwf	light@l7
  4953  0E63  3000               	movlw	0
  4954  0E64  00A1               	movwf	light@l7+1
  4955  0E65  3001               	movlw	1
  4956  0E66  00A2               	movwf	light@l6
  4957  0E67  3000               	movlw	0
  4958  0E68  00A3               	movwf	light@l6+1
  4959  0E69  3001               	movlw	1
  4960  0E6A  00A4               	movwf	light@l5
  4961  0E6B  3000               	movlw	0
  4962  0E6C  00A5               	movwf	light@l5+1
  4963  0E6D  3001               	movlw	1
  4964  0E6E  00A6               	movwf	light@l4
  4965  0E6F  3000               	movlw	0
  4966  0E70  00A7               	movwf	light@l4+1
  4967  0E71  3001               	movlw	1
  4968  0E72  00A8               	movwf	light@l3
  4969  0E73  3000               	movlw	0
  4970  0E74  00A9               	movwf	light@l3+1
  4971  0E75  3001               	movlw	1
  4972  0E76  00AA               	movwf	light@l2
  4973  0E77  3000               	movlw	0
  4974  0E78  00AB               	movwf	light@l2+1
  4975  0E79  3001               	movlw	1
  4976  0E7A  00AC               	movwf	light@l1
  4977  0E7B  3000               	movlw	0
  4978  0E7C  00AD               	movwf	light@l1+1
  4979  0E7D  3008               	movlw	8
  4980  0E7E  00AE               	movwf	light@d
  4981  0E7F  3000               	movlw	0
  4982  0E80  00AF               	movwf	light@d+1
  4983  0E81  3183  23E8  3188   	fcall	_light
  4984                           
  4985                           ;main.c: 307: light(0,0,0,0,0,0,0,16);
  4986  0E84  3000               	movlw	0
  4987  0E85  0140               	movlb	0	; select bank0
  4988  0E86  00A0               	movwf	light@l7
  4989  0E87  00A1               	movwf	light@l7+1
  4990  0E88  3000               	movlw	0
  4991  0E89  00A2               	movwf	light@l6
  4992  0E8A  00A3               	movwf	light@l6+1
  4993  0E8B  3000               	movlw	0
  4994  0E8C  00A4               	movwf	light@l5
  4995  0E8D  00A5               	movwf	light@l5+1
  4996  0E8E  3000               	movlw	0
  4997  0E8F  00A6               	movwf	light@l4
  4998  0E90  00A7               	movwf	light@l4+1
  4999  0E91  3000               	movlw	0
  5000  0E92  00A8               	movwf	light@l3
  5001  0E93  00A9               	movwf	light@l3+1
  5002  0E94  3000               	movlw	0
  5003  0E95  00AA               	movwf	light@l2
  5004  0E96  00AB               	movwf	light@l2+1
  5005  0E97  3000               	movlw	0
  5006  0E98  00AC               	movwf	light@l1
  5007  0E99  00AD               	movwf	light@l1+1
  5008  0E9A  3010               	movlw	16
  5009  0E9B  00AE               	movwf	light@d
  5010  0E9C  3000               	movlw	0
  5011  0E9D  00AF               	movwf	light@d+1
  5012  0E9E  3183  23E8  3188   	fcall	_light
  5013                           
  5014                           ;main.c: 308: light(1,1,1,1,1,1,1,8);
  5015  0EA1  3001               	movlw	1
  5016  0EA2  0140               	movlb	0	; select bank0
  5017  0EA3  00A0               	movwf	light@l7
  5018  0EA4  3000               	movlw	0
  5019  0EA5  00A1               	movwf	light@l7+1
  5020  0EA6  3001               	movlw	1
  5021  0EA7  00A2               	movwf	light@l6
  5022  0EA8  3000               	movlw	0
  5023  0EA9  00A3               	movwf	light@l6+1
  5024  0EAA  3001               	movlw	1
  5025  0EAB  00A4               	movwf	light@l5
  5026  0EAC  3000               	movlw	0
  5027  0EAD  00A5               	movwf	light@l5+1
  5028  0EAE  3001               	movlw	1
  5029  0EAF  00A6               	movwf	light@l4
  5030  0EB0  3000               	movlw	0
  5031  0EB1  00A7               	movwf	light@l4+1
  5032  0EB2  3001               	movlw	1
  5033  0EB3  00A8               	movwf	light@l3
  5034  0EB4  3000               	movlw	0
  5035  0EB5  00A9               	movwf	light@l3+1
  5036  0EB6  3001               	movlw	1
  5037  0EB7  00AA               	movwf	light@l2
  5038  0EB8  3000               	movlw	0
  5039  0EB9  00AB               	movwf	light@l2+1
  5040  0EBA  3001               	movlw	1
  5041  0EBB  00AC               	movwf	light@l1
  5042  0EBC  3000               	movlw	0
  5043  0EBD  00AD               	movwf	light@l1+1
  5044  0EBE  3008               	movlw	8
  5045  0EBF  00AE               	movwf	light@d
  5046  0EC0  3000               	movlw	0
  5047  0EC1  00AF               	movwf	light@d+1
  5048  0EC2  3183  23E8  3188   	fcall	_light
  5049                           
  5050                           ;main.c: 309: light(1,0,0,1,0,0,1,8);
  5051  0EC5  3001               	movlw	1
  5052  0EC6  0140               	movlb	0	; select bank0
  5053  0EC7  00A0               	movwf	light@l7
  5054  0EC8  3000               	movlw	0
  5055  0EC9  00A1               	movwf	light@l7+1
  5056  0ECA  3000               	movlw	0
  5057  0ECB  00A2               	movwf	light@l6
  5058  0ECC  00A3               	movwf	light@l6+1
  5059  0ECD  3000               	movlw	0
  5060  0ECE  00A4               	movwf	light@l5
  5061  0ECF  00A5               	movwf	light@l5+1
  5062  0ED0  3001               	movlw	1
  5063  0ED1  00A6               	movwf	light@l4
  5064  0ED2  3000               	movlw	0
  5065  0ED3  00A7               	movwf	light@l4+1
  5066  0ED4  3000               	movlw	0
  5067  0ED5  00A8               	movwf	light@l3
  5068  0ED6  00A9               	movwf	light@l3+1
  5069  0ED7  3000               	movlw	0
  5070  0ED8  00AA               	movwf	light@l2
  5071  0ED9  00AB               	movwf	light@l2+1
  5072  0EDA  3001               	movlw	1
  5073  0EDB  00AC               	movwf	light@l1
  5074  0EDC  3000               	movlw	0
  5075  0EDD  00AD               	movwf	light@l1+1
  5076  0EDE  3008               	movlw	8
  5077  0EDF  00AE               	movwf	light@d
  5078  0EE0  3000               	movlw	0
  5079  0EE1  00AF               	movwf	light@d+1
  5080  0EE2  3183  23E8  3188   	fcall	_light
  5081                           
  5082                           ;main.c: 310: light(1,0,0,1,0,0,1,8);
  5083  0EE5  3001               	movlw	1
  5084  0EE6  0140               	movlb	0	; select bank0
  5085  0EE7  00A0               	movwf	light@l7
  5086  0EE8  3000               	movlw	0
  5087  0EE9  00A1               	movwf	light@l7+1
  5088  0EEA  3000               	movlw	0
  5089  0EEB  00A2               	movwf	light@l6
  5090  0EEC  00A3               	movwf	light@l6+1
  5091  0EED  3000               	movlw	0
  5092  0EEE  00A4               	movwf	light@l5
  5093  0EEF  00A5               	movwf	light@l5+1
  5094  0EF0  3001               	movlw	1
  5095  0EF1  00A6               	movwf	light@l4
  5096  0EF2  3000               	movlw	0
  5097  0EF3  00A7               	movwf	light@l4+1
  5098  0EF4  3000               	movlw	0
  5099  0EF5  00A8               	movwf	light@l3
  5100  0EF6  00A9               	movwf	light@l3+1
  5101  0EF7  3000               	movlw	0
  5102  0EF8  00AA               	movwf	light@l2
  5103  0EF9  00AB               	movwf	light@l2+1
  5104  0EFA  3001               	movlw	1
  5105  0EFB  00AC               	movwf	light@l1
  5106  0EFC  3000               	movlw	0
  5107  0EFD  00AD               	movwf	light@l1+1
  5108  0EFE  3008               	movlw	8
  5109  0EFF  00AE               	movwf	light@d
  5110  0F00  3000               	movlw	0
  5111  0F01  00AF               	movwf	light@d+1
  5112  0F02  3183  23E8  3188   	fcall	_light
  5113                           
  5114                           ;main.c: 311: light(1,0,0,1,1,1,1,8);
  5115  0F05  3001               	movlw	1
  5116  0F06  0140               	movlb	0	; select bank0
  5117  0F07  00A0               	movwf	light@l7
  5118  0F08  3000               	movlw	0
  5119  0F09  00A1               	movwf	light@l7+1
  5120  0F0A  3000               	movlw	0
  5121  0F0B  00A2               	movwf	light@l6
  5122  0F0C  00A3               	movwf	light@l6+1
  5123  0F0D  3000               	movlw	0
  5124  0F0E  00A4               	movwf	light@l5
  5125  0F0F  00A5               	movwf	light@l5+1
  5126  0F10  3001               	movlw	1
  5127  0F11  00A6               	movwf	light@l4
  5128  0F12  3000               	movlw	0
  5129  0F13  00A7               	movwf	light@l4+1
  5130  0F14  3001               	movlw	1
  5131  0F15  00A8               	movwf	light@l3
  5132  0F16  3000               	movlw	0
  5133  0F17  00A9               	movwf	light@l3+1
  5134  0F18  3001               	movlw	1
  5135  0F19  00AA               	movwf	light@l2
  5136  0F1A  3000               	movlw	0
  5137  0F1B  00AB               	movwf	light@l2+1
  5138  0F1C  3001               	movlw	1
  5139  0F1D  00AC               	movwf	light@l1
  5140  0F1E  3000               	movlw	0
  5141  0F1F  00AD               	movwf	light@l1+1
  5142  0F20  3008               	movlw	8
  5143  0F21  00AE               	movwf	light@d
  5144  0F22  3000               	movlw	0
  5145  0F23  00AF               	movwf	light@d+1
  5146  0F24  3183  23E8  3188   	fcall	_light
  5147                           
  5148                           ;main.c: 312: light(1,1,1,1,1,1,1,8);
  5149  0F27  3001               	movlw	1
  5150  0F28  0140               	movlb	0	; select bank0
  5151  0F29  00A0               	movwf	light@l7
  5152  0F2A  3000               	movlw	0
  5153  0F2B  00A1               	movwf	light@l7+1
  5154  0F2C  3001               	movlw	1
  5155  0F2D  00A2               	movwf	light@l6
  5156  0F2E  3000               	movlw	0
  5157  0F2F  00A3               	movwf	light@l6+1
  5158  0F30  3001               	movlw	1
  5159  0F31  00A4               	movwf	light@l5
  5160  0F32  3000               	movlw	0
  5161  0F33  00A5               	movwf	light@l5+1
  5162  0F34  3001               	movlw	1
  5163  0F35  00A6               	movwf	light@l4
  5164  0F36  3000               	movlw	0
  5165  0F37  00A7               	movwf	light@l4+1
  5166  0F38  3001               	movlw	1
  5167  0F39  00A8               	movwf	light@l3
  5168  0F3A  3000               	movlw	0
  5169  0F3B  00A9               	movwf	light@l3+1
  5170  0F3C  3001               	movlw	1
  5171  0F3D  00AA               	movwf	light@l2
  5172  0F3E  3000               	movlw	0
  5173  0F3F  00AB               	movwf	light@l2+1
  5174  0F40  3001               	movlw	1
  5175  0F41  00AC               	movwf	light@l1
  5176  0F42  3000               	movlw	0
  5177  0F43  00AD               	movwf	light@l1+1
  5178  0F44  3008               	movlw	8
  5179  0F45  00AE               	movwf	light@d
  5180  0F46  3000               	movlw	0
  5181  0F47  00AF               	movwf	light@d+1
  5182  0F48  3183  23E8  3188   	fcall	_light
  5183                           
  5184                           ;main.c: 313: light(0,0,0,0,0,0,0,16);
  5185  0F4B  3000               	movlw	0
  5186  0F4C  0140               	movlb	0	; select bank0
  5187  0F4D  00A0               	movwf	light@l7
  5188  0F4E  00A1               	movwf	light@l7+1
  5189  0F4F  3000               	movlw	0
  5190  0F50  00A2               	movwf	light@l6
  5191  0F51  00A3               	movwf	light@l6+1
  5192  0F52  3000               	movlw	0
  5193  0F53  00A4               	movwf	light@l5
  5194  0F54  00A5               	movwf	light@l5+1
  5195  0F55  3000               	movlw	0
  5196  0F56  00A6               	movwf	light@l4
  5197  0F57  00A7               	movwf	light@l4+1
  5198  0F58  3000               	movlw	0
  5199  0F59  00A8               	movwf	light@l3
  5200  0F5A  00A9               	movwf	light@l3+1
  5201  0F5B  3000               	movlw	0
  5202  0F5C  00AA               	movwf	light@l2
  5203  0F5D  00AB               	movwf	light@l2+1
  5204  0F5E  3000               	movlw	0
  5205  0F5F  00AC               	movwf	light@l1
  5206  0F60  00AD               	movwf	light@l1+1
  5207  0F61  3010               	movlw	16
  5208  0F62  00AE               	movwf	light@d
  5209  0F63  3000               	movlw	0
  5210  0F64  00AF               	movwf	light@d+1
  5211  0F65  3183  23E8  3188   	fcall	_light
  5212                           
  5213                           ;main.c: 314: light(0,0,0,0,0,0,0,2000);
  5214  0F68  3000               	movlw	0
  5215  0F69  0140               	movlb	0	; select bank0
  5216  0F6A  00A0               	movwf	light@l7
  5217  0F6B  00A1               	movwf	light@l7+1
  5218  0F6C  3000               	movlw	0
  5219  0F6D  00A2               	movwf	light@l6
  5220  0F6E  00A3               	movwf	light@l6+1
  5221  0F6F  3000               	movlw	0
  5222  0F70  00A4               	movwf	light@l5
  5223  0F71  00A5               	movwf	light@l5+1
  5224  0F72  3000               	movlw	0
  5225  0F73  00A6               	movwf	light@l4
  5226  0F74  00A7               	movwf	light@l4+1
  5227  0F75  3000               	movlw	0
  5228  0F76  00A8               	movwf	light@l3
  5229  0F77  00A9               	movwf	light@l3+1
  5230  0F78  3000               	movlw	0
  5231  0F79  00AA               	movwf	light@l2
  5232  0F7A  00AB               	movwf	light@l2+1
  5233  0F7B  3000               	movlw	0
  5234  0F7C  00AC               	movwf	light@l1
  5235  0F7D  00AD               	movwf	light@l1+1
  5236  0F7E  30D0               	movlw	208
  5237  0F7F  00AE               	movwf	light@d
  5238  0F80  3007               	movlw	7
  5239  0F81  00AF               	movwf	light@d+1
  5240  0F82  3183  23E8  3188   	fcall	_light
  5241  0F85                     L10:	
  5242                           
  5243                           ;main.c: 315: break;
  5244  0F85  3185  2D0C         	goto	L8
  5245  0F87                     l308:	
  5246                           ;main.c: 317: do { LATCbits.LATC3 = 0; } while(0);
  5247                           
  5248                           ;main.c: 316: case SLEEP:
  5249                           
  5250  0F87  0140               	movlb	0	; select bank0
  5251  0F88  119A               	bcf	26,3	;volatile
  5252                           
  5253                           ;main.c: 318: do { LATCbits.LATC2 = 0; } while(0);
  5254  0F89  111A               	bcf	26,2	;volatile
  5255                           
  5256                           ;main.c: 319: do { LATCbits.LATC1 = 0; } while(0);
  5257  0F8A  109A               	bcf	26,1	;volatile
  5258                           
  5259                           ;main.c: 320: do { LATCbits.LATC0 = 0; } while(0);
  5260  0F8B  101A               	bcf	26,0	;volatile
  5261                           
  5262                           ;main.c: 321: do { LATAbits.LATA2 = 0; } while(0);
  5263  0F8C  1118               	bcf	24,2	;volatile
  5264                           
  5265                           ;main.c: 322: do { LATAbits.LATA1 = 0; } while(0);
  5266  0F8D  1098               	bcf	24,1	;volatile
  5267                           
  5268                           ;main.c: 323: do { LATAbits.LATA0 = 0; } while(0);
  5269  0F8E  1018               	bcf	24,0	;volatile
  5270                           
  5271                           ;main.c: 324: break;
  5272  0F8F  2F85               	goto	L10
  5273  0F90                     l1457:	
  5274                           ;main.c: 325: case RBLINK:
  5275                           
  5276                           
  5277                           ;main.c: 326: randomnumber = 1+ rand() % 7;
  5278  0F90  3007               	movlw	7
  5279  0F91  00A5               	movwf	___awmod@divisor
  5280  0F92  3000               	movlw	0
  5281  0F93  00A6               	movwf	___awmod@divisor+1
  5282  0F94  3184  2421  3188   	fcall	_rand
  5283  0F97  087D               	movf	?_rand+1,w
  5284  0F98  0140               	movlb	0	; select bank0
  5285  0F99  00A8               	movwf	___awmod@dividend+1
  5286  0F9A  087C               	movf	?_rand,w
  5287  0F9B  00A7               	movwf	___awmod@dividend
  5288  0F9C  3184  245D  3188   	fcall	___awmod
  5289  0F9F  0140               	movlb	0	; select bank0
  5290  0FA0  0825               	movf	?___awmod,w
  5291  0FA1  3E01               	addlw	1
  5292  0FA2  00B8               	movwf	main@randomnumber
  5293  0FA3  3000               	movlw	0
  5294  0FA4  3D26               	addwfc	?___awmod+1,w
  5295  0FA5  00B9               	movwf	main@randomnumber+1
  5296                           
  5297                           ;main.c: 327: do { LATCbits.LATC3 = ~LATCbits.LATC3; } while(0);
  5298  0FA6  1003               	clrc
  5299  0FA7  1D9A               	btfss	26,3	;volatile
  5300  0FA8  1403               	setc
  5301  0FA9  1C03               	btfss	3,0
  5302  0FAA  2FAE               	goto	u1550
  5303  0FAB  0140               	movlb	0	; select bank0
  5304  0FAC  159A               	bsf	26,3	;volatile
  5305  0FAD  2FB0               	goto	l1461
  5306  0FAE                     u1550:	
  5307  0FAE  0140               	movlb	0	; select bank0
  5308  0FAF  119A               	bcf	26,3	;volatile
  5309  0FB0                     l1461:	
  5310                           ;main.c: 328: do { LATCbits.LATC2 = ~LATCbits.LATC2; } while(0);
  5311                           
  5312  0FB0  1003               	clrc
  5313  0FB1  1D1A               	btfss	26,2	;volatile
  5314  0FB2  1403               	setc
  5315  0FB3  1C03               	btfss	3,0
  5316  0FB4  2FB8               	goto	u1570
  5317  0FB5  0140               	movlb	0	; select bank0
  5318  0FB6  151A               	bsf	26,2	;volatile
  5319  0FB7  2FBA               	goto	l1463
  5320  0FB8                     u1570:	
  5321  0FB8  0140               	movlb	0	; select bank0
  5322  0FB9  111A               	bcf	26,2	;volatile
  5323  0FBA                     l1463:	
  5324                           ;main.c: 329: do { LATCbits.LATC1 = ~LATCbits.LATC1; } while(0);
  5325                           
  5326  0FBA  1003               	clrc
  5327  0FBB  1C9A               	btfss	26,1	;volatile
  5328  0FBC  1403               	setc
  5329  0FBD  1C03               	btfss	3,0
  5330  0FBE  2FC2               	goto	u1590
  5331  0FBF  0140               	movlb	0	; select bank0
  5332  0FC0  149A               	bsf	26,1	;volatile
  5333  0FC1  2FC4               	goto	l1465
  5334  0FC2                     u1590:	
  5335  0FC2  0140               	movlb	0	; select bank0
  5336  0FC3  109A               	bcf	26,1	;volatile
  5337  0FC4                     l1465:	
  5338                           ;main.c: 330: do { LATCbits.LATC0 = ~LATCbits.LATC0; } while(0);
  5339                           
  5340  0FC4  1003               	clrc
  5341  0FC5  1C1A               	btfss	26,0	;volatile
  5342  0FC6  1403               	setc
  5343  0FC7  1C03               	btfss	3,0
  5344  0FC8  2FCC               	goto	u1610
  5345  0FC9  0140               	movlb	0	; select bank0
  5346  0FCA  141A               	bsf	26,0	;volatile
  5347  0FCB  2FCE               	goto	l1467
  5348  0FCC                     u1610:	
  5349  0FCC  0140               	movlb	0	; select bank0
  5350  0FCD  101A               	bcf	26,0	;volatile
  5351  0FCE                     l1467:	
  5352                           ;main.c: 331: do { LATAbits.LATA2 = ~LATAbits.LATA2; } while(0);
  5353                           
  5354  0FCE  1003               	clrc
  5355  0FCF  1D18               	btfss	24,2	;volatile
  5356  0FD0  1403               	setc
  5357  0FD1  1C03               	btfss	3,0
  5358  0FD2  2FD6               	goto	u1630
  5359  0FD3  0140               	movlb	0	; select bank0
  5360  0FD4  1518               	bsf	24,2	;volatile
  5361  0FD5  2FD8               	goto	l1469
  5362  0FD6                     u1630:	
  5363  0FD6  0140               	movlb	0	; select bank0
  5364  0FD7  1118               	bcf	24,2	;volatile
  5365  0FD8                     l1469:	
  5366                           ;main.c: 332: do { LATAbits.LATA1 = ~LATAbits.LATA1; } while(0);
  5367                           
  5368  0FD8  1003               	clrc
  5369  0FD9  1C98               	btfss	24,1	;volatile
  5370  0FDA  1403               	setc
  5371  0FDB  1C03               	btfss	3,0
  5372  0FDC  2FE0               	goto	u1650
  5373  0FDD  0140               	movlb	0	; select bank0
  5374  0FDE  1498               	bsf	24,1	;volatile
  5375  0FDF  2FE2               	goto	l1471
  5376  0FE0                     u1650:	
  5377  0FE0  0140               	movlb	0	; select bank0
  5378  0FE1  1098               	bcf	24,1	;volatile
  5379  0FE2                     l1471:	
  5380                           ;main.c: 333: do { LATAbits.LATA0 = ~LATAbits.LATA0; } while(0);
  5381                           
  5382  0FE2  1003               	clrc
  5383  0FE3  1C18               	btfss	24,0	;volatile
  5384  0FE4  1403               	setc
  5385  0FE5  1C03               	btfss	3,0
  5386  0FE6  2FEA               	goto	u1670
  5387  0FE7  0140               	movlb	0	; select bank0
  5388  0FE8  1418               	bsf	24,0	;volatile
  5389  0FE9  2FEC               	goto	l1473
  5390  0FEA                     u1670:	
  5391  0FEA  0140               	movlb	0	; select bank0
  5392  0FEB  1018               	bcf	24,0	;volatile
  5393  0FEC                     l1473:	
  5394                           
  5395                           ;main.c: 335: delay_ms(1000);
  5396  0FEC  30E8               	movlw	232
  5397  0FED  00F0               	movwf	delay_ms@milliseconds
  5398  0FEE  3003               	movlw	3
  5399  0FEF  00F1               	movwf	delay_ms@milliseconds+1
  5400  0FF0  3183  239A  3188   	fcall	_delay_ms
  5401                           
  5402                           ;main.c: 339: }
  5403                           
  5404                           ;main.c: 338: break;
  5405                           
  5406                           ;main.c: 337: default:
  5407                           
  5408                           ;main.c: 336: break;
  5409  0FF3  2F85               	goto	L10
  5410  0FF4                     l1477:	
  5411  0FF4  0140               	movlb	0	; select bank0
  5412  0FF5  083C               	movf	main@state,w
  5413                           
  5414                           ; Switch size 1, requested type "space"
  5415                           ; Number of cases is 9, Range of values is 0 to 8
  5416                           ; switch strategies available:
  5417                           ; Name         Instructions Cycles
  5418                           ; direct_byte           24     6 (fixed)
  5419                           ; simple_byte           28    15 (average)
  5420                           ; jumptable            260     6 (fixed)
  5421                           ;	Chosen strategy is direct_byte
  5422  0FF6  0084               	movwf	4
  5423  0FF7  3009               	movlw	9
  5424  0FF8  0204               	subwf	4,w
  5425  0FF9  1803               	skipnc
  5426  0FFA  2F85               	goto	L10
  5427  0FFB  3180               	movlp	high S1529
  5428  0FFC  3504               	lslf	4,w
  5429  0FFD  3E16               	addlw	low S1529
  5430  0FFE  0082               	movwf	2
  5431  0FFF  2F85               	goto	L10
  5432  1000                     __end_of_main:	


Data Sizes:
    Strings     0
    Constant    0
    Data        4
    BSS         0
    Persistent  0
    Stack       0

Auto Spaces:
    Space          Size  Autos    Used
    COMMON           14     14      14
    BANK0            80     29      33
    BANK1            80      0       0
    BANK2            80      0       0
    BANK3            80      0       0
    BANK4            80      0       0
    BANK5            80      0       0
    BANK6            80      0       0
    BANK7            80      0       0
    BANK8            80      0       0
    BANK9            80      0       0
    BANK10           80      0       0
    BANK11           80      0       0
    BANK12           48      0       0

Pointer List with Targets:

    None.

Critical Paths under _main in COMMON

    _main->_rand
    _light->_delay_ms
    _delay->_rand
    _rand->___lmul
    ___awmod->_rand

Critical Paths under _main in BANK0

    _main->_delay
    _delay->___awmod
    ___awmod->_rand

Critical Paths under _main in BANK1

    None.

Critical Paths under _main in BANK2

    None.

Critical Paths under _main in BANK3

    None.

Critical Paths under _main in BANK4

    None.

Critical Paths under _main in BANK5

    None.

Critical Paths under _main in BANK6

    None.

Critical Paths under _main in BANK7

    None.

Critical Paths under _main in BANK8

    None.

Critical Paths under _main in BANK9

    None.

Critical Paths under _main in BANK10

    None.

Critical Paths under _main in BANK11

    None.

Critical Paths under _main in BANK12

    None.

Call Graph Tables:

 ---------------------------------------------------------------------------------
 (Depth) Function   	        Calls       Base Space   Used Autos Params    Refs
 ---------------------------------------------------------------------------------
 (0) _main                                                10    10      0   26116
                                             19 BANK0     10    10      0
                  _SYSTEM_Initialize
                            ___awmod
                              _delay
                           _delay_ms
                              _light
                               _rand
 ---------------------------------------------------------------------------------
 (1) _light                                               16     0     16   23849
                                              0 BANK0     16     0     16
                           _delay_ms
 ---------------------------------------------------------------------------------
 (2) _delay_ms                                             2     0      2     625
                                              0 COMMON     2     0      2
 ---------------------------------------------------------------------------------
 (1) _delay                                                7     7      0     827
                                             12 BANK0      7     7      0
                            ___awmod
                               _rand
 ---------------------------------------------------------------------------------
 (1) _rand                                                 7     5      2     178
                                             12 COMMON     2     0      2
                                              0 BANK0      5     5      0
                             ___lmul
 ---------------------------------------------------------------------------------
 (2) ___lmul                                              12     4      8     178
                                              0 COMMON    12     4      8
 ---------------------------------------------------------------------------------
 (2) ___awmod                                              7     3      4     554
                                              5 BANK0      7     3      4
                               _rand (ARG)
 ---------------------------------------------------------------------------------
 (1) _SYSTEM_Initialize                                    0     0      0       0
              _OSCILLATOR_Initialize
             _PIN_MANAGER_Initialize
 ---------------------------------------------------------------------------------
 (2) _PIN_MANAGER_Initialize                               0     0      0       0
 ---------------------------------------------------------------------------------
 (2) _OSCILLATOR_Initialize                                0     0      0       0
 ---------------------------------------------------------------------------------
 Estimated maximum stack depth 2
 ---------------------------------------------------------------------------------

 Call Graph Graphs:

 _main (ROOT)
   _SYSTEM_Initialize
     _OSCILLATOR_Initialize
     _PIN_MANAGER_Initialize
   ___awmod
     _rand (ARG)
       ___lmul
   _delay
     ___awmod
       _rand (ARG)
         ___lmul
     _rand
       ___lmul
   _delay_ms
   _light
     _delay_ms
   _rand
     ___lmul

 Address spaces:
Name               Size   Autos  Total    Cost      Usage
BIGRAM             3F0      0       0       0        0.0%
NULL                 0      0       0       0        0.0%
CODE                 0      0       0       0        0.0%
BITCOMMON            E      0       0       1        0.0%
BITSFR0              0      0       0       1        0.0%
SFR0                 0      0       0       1        0.0%
COMMON               E      E       E       2      100.0%
BITSFR1              0      0       0       2        0.0%
SFR1                 0      0       0       2        0.0%
BITSFR2              0      0       0       3        0.0%
SFR2                 0      0       0       3        0.0%
STACK                0      0       0       3        0.0%
BITSFR3              0      0       0       4        0.0%
SFR3                 0      0       0       4        0.0%
ABS                  0      0      2F       4        0.0%
BITBANK0            50      0       0       5        0.0%
BITSFR4              0      0       0       5        0.0%
SFR4                 0      0       0       5        0.0%
BANK0               50     1D      21       6       41.2%
BITSFR5              0      0       0       6        0.0%
SFR5                 0      0       0       6        0.0%
BITBANK1            50      0       0       7        0.0%
BITSFR6              0      0       0       7        0.0%
SFR6                 0      0       0       7        0.0%
BANK1               50      0       0       8        0.0%
BITSFR7              0      0       0       8        0.0%
SFR7                 0      0       0       8        0.0%
BITBANK2            50      0       0       9        0.0%
BITSFR8              0      0       0       9        0.0%
SFR8                 0      0       0       9        0.0%
BANK2               50      0       0      10        0.0%
BITSFR9              0      0       0      10        0.0%
SFR9                 0      0       0      10        0.0%
BITBANK3            50      0       0      11        0.0%
BITSFR10             0      0       0      11        0.0%
SFR10                0      0       0      11        0.0%
BANK3               50      0       0      12        0.0%
BITSFR11             0      0       0      12        0.0%
SFR11                0      0       0      12        0.0%
BITBANK4            50      0       0      13        0.0%
BITSFR12             0      0       0      13        0.0%
SFR12                0      0       0      13        0.0%
BANK4               50      0       0      14        0.0%
BITSFR13             0      0       0      14        0.0%
SFR13                0      0       0      14        0.0%
BITBANK5            50      0       0      15        0.0%
BITSFR14             0      0       0      15        0.0%
SFR14                0      0       0      15        0.0%
BANK5               50      0       0      16        0.0%
BITSFR15             0      0       0      16        0.0%
SFR15                0      0       0      16        0.0%
BITBANK6            50      0       0      17        0.0%
BITSFR16             0      0       0      17        0.0%
SFR16                0      0       0      17        0.0%
BANK6               50      0       0      18        0.0%
BITSFR17             0      0       0      18        0.0%
SFR17                0      0       0      18        0.0%
BITBANK7            50      0       0      19        0.0%
BITSFR18             0      0       0      19        0.0%
SFR18                0      0       0      19        0.0%
BANK7               50      0       0      20        0.0%
BITSFR19             0      0       0      20        0.0%
SFR19                0      0       0      20        0.0%
BITBANK8            50      0       0      21        0.0%
BITSFR20             0      0       0      21        0.0%
SFR20                0      0       0      21        0.0%
BANK8               50      0       0      22        0.0%
BITSFR21             0      0       0      22        0.0%
SFR21                0      0       0      22        0.0%
BITBANK9            50      0       0      23        0.0%
BITSFR22             0      0       0      23        0.0%
SFR22                0      0       0      23        0.0%
BANK9               50      0       0      24        0.0%
BITSFR23             0      0       0      24        0.0%
SFR23                0      0       0      24        0.0%
BITBANK10           50      0       0      25        0.0%
BITSFR24             0      0       0      25        0.0%
SFR24                0      0       0      25        0.0%
BANK10              50      0       0      26        0.0%
BITSFR25             0      0       0      26        0.0%
SFR25                0      0       0      26        0.0%
BITBANK11           50      0       0      27        0.0%
BITSFR26             0      0       0      27        0.0%
SFR26                0      0       0      27        0.0%
BANK11              50      0       0      28        0.0%
BITSFR27             0      0       0      28        0.0%
SFR27                0      0       0      28        0.0%
BITBANK12           30      0       0      29        0.0%
BITSFR28             0      0       0      29        0.0%
SFR28                0      0       0      29        0.0%
BANK12              30      0       0      30        0.0%
BITSFR29             0      0       0      30        0.0%
SFR29                0      0       0      30        0.0%
BITSFR30             0      0       0      31        0.0%
SFR30                0      0       0      31        0.0%
DATA                 0      0      2F      31        0.0%
BITSFR31             0      0       0      32        0.0%
SFR31                0      0       0      32        0.0%
BITSFR32             0      0       0      33        0.0%
SFR32                0      0       0      33        0.0%
BITSFR33             0      0       0      34        0.0%
SFR33                0      0       0      34        0.0%
BITSFR34             0      0       0      35        0.0%
SFR34                0      0       0      35        0.0%
BITSFR35             0      0       0      36        0.0%
SFR35                0      0       0      36        0.0%
BITSFR36             0      0       0      37        0.0%
SFR36                0      0       0      37        0.0%
BITSFR37             0      0       0      38        0.0%
SFR37                0      0       0      38        0.0%
BITSFR38             0      0       0      39        0.0%
SFR38                0      0       0      39        0.0%
BITSFR39             0      0       0      40        0.0%
SFR39                0      0       0      40        0.0%
BITSFR40             0      0       0      41        0.0%
SFR40                0      0       0      41        0.0%
BITSFR41             0      0       0      42        0.0%
SFR41                0      0       0      42        0.0%
BITSFR42             0      0       0      43        0.0%
SFR42                0      0       0      43        0.0%
BITSFR43             0      0       0      44        0.0%
SFR43                0      0       0      44        0.0%
BITSFR44             0      0       0      45        0.0%
SFR44                0      0       0      45        0.0%
BITSFR45             0      0       0      46        0.0%
SFR45                0      0       0      46        0.0%
BITSFR46             0      0       0      47        0.0%
SFR46                0      0       0      47        0.0%
BITSFR47             0      0       0      48        0.0%
SFR47                0      0       0      48        0.0%
BITSFR48             0      0       0      49        0.0%
SFR48                0      0       0      49        0.0%
BITSFR49             0      0       0      50        0.0%
SFR49                0      0       0      50        0.0%
BITSFR50             0      0       0      51        0.0%
SFR50                0      0       0      51        0.0%
BITSFR51             0      0       0      52        0.0%
SFR51                0      0       0      52        0.0%
BITSFR52             0      0       0      53        0.0%
SFR52                0      0       0      53        0.0%
BITSFR53             0      0       0      54        0.0%
SFR53                0      0       0      54        0.0%
BITSFR54             0      0       0      55        0.0%
SFR54                0      0       0      55        0.0%
BITSFR55             0      0       0      56        0.0%
SFR55                0      0       0      56        0.0%
BITSFR56             0      0       0      57        0.0%
SFR56                0      0       0      57        0.0%
BITSFR57             0      0       0      58        0.0%
SFR57                0      0       0      58        0.0%
BITSFR58             0      0       0      59        0.0%
SFR58                0      0       0      59        0.0%
BITSFR59             0      0       0      60        0.0%
SFR59                0      0       0      60        0.0%
BITSFR60             0      0       0      61        0.0%
SFR60                0      0       0      61        0.0%
BITSFR61             0      0       0      62        0.0%
SFR61                0      0       0      62        0.0%
BITSFR62             0      0       0      63        0.0%
SFR62                0      0       0      63        0.0%
BITSFR63             0      0       0      64        0.0%
SFR63                0      0       0      64        0.0%


Microchip Technology PIC Macro Assembler V1.42 build -159332390 
Symbol Table                                                                                   Sun Sep 10 12:50:42 2017

                              pc 0002                      __CFG_CP$OFF 0000                               l71 061C  
                             l90 064C                      __CFG_LVP$ON 0000                              l106 0659  
                            l140 06A2                              l142 06AC                              l118 067C  
                            l151 06DD                              l144 06B6                              l136 068E  
                            l161 070F                              l153 06E7                              l146 06C0  
                            l138 0698                              l155 06F1                              l308 0F87  
                            l164 0721                              l157 06FB                              l343 04C0  
                            l159 0705                              l272 07CE                              l361 03EF  
                            l266 07A4                              l373 03FD                              l278 04EE  
                            l391 0412                              l367 03F6                              l385 040B  
                            l379 0404                              l397 0419                              u945 0478  
                            u865 03CC                              u875 03D3                              u965 0487  
                            u975 048E                              u895 0450                     ___awmod@sign 002B  
                   __CFG_BORV$LO 0000                              wreg 0009                    __CFG_BBEN$OFF 0000  
                           S1527 0004                             S1529 0016                     __CFG_ZCD$OFF 0000  
                           l1221 046F                             l1231 0481                             l1207 039A  
                           l1311 0664                             l1303 065C                             l1217 0468  
                           l1161 03CB                             l1313 0666                             l1305 065E  
                           l1321 066F                             l1243 049E                             l1235 048D  
                           l1331 0719                             l1315 0668                             l1307 0660  
                           l1323 0679                             l1229 0475                             l1157 03C1  
                           l1261 04D9                             l1421 0796                             l1325 0684  
                           l1317 066D                             l1309 0662                             l1239 0496  
                           l1263 04E8                             l1271 03FE                             l1327 06CA  
                           l1273 0405                             l1329 06D2                             l1275 040C  
                           l1267 03F0                             l1435 07DC                             l1427 07B2  
                           l1419 078B                             l1277 0413                             l1269 03F7  
                           l1461 0FB0                             l1437 07EA                             l1429 07C0  
                           l1279 041A                             l1471 0FE2                             l1463 0FBA  
                           l1455 050E                             l1473 0FEC                             l1465 0FC4  
                           l1457 0F90                             l1297 063C                             l1467 0FCE  
                           l1299 0653                             l1469 0FD8                             l1477 0FF4  
                           u1025 04CA                             u1210 06B4                             u1130 068C  
                           u1310 06EF                             u1230 06BE                             u1150 0696  
                           u1410 0794                             u1330 06F9                             u1250 06C8  
                           u1170 06A0                             _LATA 0018                             u1510 07DA  
                           u1430 07A2                             u1350 0703                             u1270 06DB  
                           u1190 06AA                             _LATC 001A                             u1610 0FCC  
                           u1530 07E8                             u1450 07B0                             u1370 070D  
                           u1290 06E5                             u1630 0FD6                             u1550 0FAE  
                           u1470 07BE                             u1390 0717                             u1650 0FE0  
                           u1570 0FB8                             u1490 07CC                             u1670 0FEA  
                           u1590 0FC2                             u1697 03A3                             _WPUA 1F39  
                           _WPUC 1F4F                    __CFG_FCMEN$ON 0000                             _main 060D  
                           _rand 0421                             fsr0l 0004                             btemp 007E  
                  __CFG_BOREN$ON 0000                             start 0002                main@button_pushed 003A  
                  __CFG_CSWEN$ON 0000                    __CFG_MCLRE$ON 0000                     main@dotDelay 0034  
 __size_of_OSCILLATOR_Initialize 000A    __end_of_OSCILLATOR_Initialize 039A                            ?_main 0070  
                          ?_rand 007C                    __CFG_WDTE$OFF 0000                  __end_of___awmod 04A3  
                          _OSCEN 0891                            _TRISA 0012                            _TRISC 0014  
            ___lmul@multiplicand 0074                    __CFG_WRTB$OFF 0000                    __CFG_WRTC$OFF 0000  
                          _delay 04A3                            _light 03E8                            _randx 003D  
                          status 0003                            wtemp0 007E                  __initialization 07EE  
                   __end_of_main 1000                     __end_of_rand 045D                   __CFG_SAFEN$OFF 0000  
                         ??_main 0033                           ??_rand 0020                           ?_delay 0070  
                         ?_light 0020                           _ANSELA 1F38                           _ANSELC 1F4E  
             __CFG_RSTOSC$HFINT1 0000                           _ODCONA 1F3A                           _ODCONC 1F50  
                 __CFG_WDTCCS$SC 0000                           _OSCFRQ 0893                 __end_of_delay_ms 03A7  
                 __CFG_PWRTE$OFF 0000             delay_ms@milliseconds 0070                           ___lmul 03B9  
                 __CFG_STVREN$ON 0000                        ??___awmod 0029                           delay@i 002F  
                         delay@j 0031                           delay@r 002D                  ___awmod@divisor 0025  
                ___awmod@counter 002A                           light@d 002E                _SYSTEM_Initialize 038A  
        __end_of__initialization 07FD               ?_SYSTEM_Initialize 0070                   __pcstackCOMMON 0070  
                   __pidataBANK0 0386              ??_SYSTEM_Initialize 0070                    __end_of_delay 04EE  
                  __end_of_light 0421                          ??_delay 002C                          ??_light 0072  
      __end_of_SYSTEM_Initialize 0390                       __pmaintext 060D                          ?___lmul 0070  
                __CFG_PPS1WAY$ON 0000                   ___lmul@product 0078                          _OSCCON1 088D  
                        _OSCCON3 088F                        ?_delay_ms 0070                          _OSCSTAT 0890  
                        _OSCTUNE 0892                  __size_of___lmul 002F                          ___awmod 045D  
                        __ptext1 03E8                          __ptext2 039A                          __ptext3 04A3  
                        __ptext4 0421                          __ptext5 03B9                          __ptext6 045D  
                        __ptext7 038A                          __ptext8 03A7                          __ptext9 0390  
                __CFG_WRTAPP$OFF 0000            _OSCILLATOR_Initialize 0390                 ___awmod@dividend 0027  
                 main@spaceDelay 0036         ??_PIN_MANAGER_Initialize 0070                  __CFG_WRTSAF$OFF 0000  
                     ??_delay_ms 0072       __size_of_SYSTEM_Initialize 0006             end_of_initialization 07FD  
                        light@l1 002C                          light@l2 002A                          light@l3 0028  
                        light@l4 0026                          light@l5 0024                          light@l6 0022  
                        light@l7 0020                          psplit$0 70013                          psplit$1 130014  
                        psplit$2 140015            __CFG_WDTCPS$WDTCPS_31 0000                        _PORTCbits 000E  
           pnum$maintext_split_1 0013             pnum$maintext_split_2 0014             pnum$maintext_split_3 0015  
               __CFG_FEXTOSC$OFF 0000                   __end_of___lmul 03E8           ?_OSCILLATOR_Initialize 0070  
            start_initialization 07EE  __size_of_PIN_MANAGER_Initialize 0012                 __CFG_LPBOREN$OFF 0000  
                       ??___lmul 0078                      __pdataBANK0 003D                 main@randomnumber 0038  
                      ___latbits 0002                    __pcstackBANK0 0020                __size_of_delay_ms 000D  
         _PIN_MANAGER_Initialize 03A7                         ?___awmod 0025                        __pswtext1 0004  
                      __pswtext2 0016                   __size_of_delay 004B                   __size_of_light 0039  
                       _LATAbits 0018                         _LATCbits 001A                __CFG_BBSIZE$BB512 0000  
                      main@state 003C                ___lmul@multiplier 0070          ??_OSCILLATOR_Initialize 0070  
                   pnum$maintext 0007                 __size_of___awmod 0046                         _delay_ms 039A  
                  __size_of_main 09F3                    __size_of_rand 003C             __CFG_WDTCWS$WDTCWS_7 0000  
        ?_PIN_MANAGER_Initialize 0070                __CFG_CLKOUTEN$OFF 0000   __end_of_PIN_MANAGER_Initialize 03B9  
