

Microchip Technology PIC LITE Macro Assembler V1.42 build -159332390 
                                                                                               Fri Oct 27 09:46:02 2017

Microchip Technology Omniscient Code Generator v1.42 (Free mode) build 201704130522
     1                           	processor	16F15325
     2                           	opt	pw 120
     3                           	opt	lm
     4                           	psect	idataBANK0,global,class=CODE,delta=2
     5                           	psect	idataBANK2,global,class=CODE,delta=2
     6                           	psect	cinit,global,class=CODE,merge=1,delta=2
     7                           	psect	dataBANK0,global,class=BANK0,space=1,delta=1
     8                           	psect	dataBANK2,global,class=BANK2,space=1,delta=1
     9                           	psect	inittext,global,class=CODE,delta=2
    10                           	psect	cstackBANK1,global,class=BANK1,space=1,delta=1
    11                           	psect	cstackCOMMON,global,class=COMMON,space=1,delta=1
    12                           	psect	cstackBANK0,global,class=BANK0,space=1,delta=1
    13                           	psect	maintext,global,class=CODE,merge=1,split=1,delta=2
    14                           	psect	swtext1,local,class=CONST,delta=2
    15                           	psect	swtext2,local,class=CONST,delta=2
    16                           	psect	text1,local,class=CODE,merge=1,delta=2,group=1
    17                           	psect	text2,local,class=CODE,merge=1,delta=2,group=1
    18                           	psect	text3,local,class=CODE,merge=1,delta=2
    19                           	psect	text4,local,class=CODE,merge=1,delta=2
    20                           	psect	text5,local,class=CODE,merge=1,delta=2,group=1
    21                           	psect	text6,local,class=CODE,merge=1,delta=2
    22                           	psect	text7,local,class=CODE,merge=1,delta=2
    23                           	psect	text8,local,class=CODE,merge=1,delta=2
    24                           	psect	maintext_split_1,global,class=CODE,merge=1,split=1,delta=2
    25                           	psect	maintext_split_2,global,class=CODE,merge=1,split=1,delta=2
    26                           	psect	maintext_split_3,global,class=CODE,merge=1,split=1,delta=2
    27                           	psect	maintext_split_4,global,class=CODE,merge=1,split=1,delta=2
    28                           	psect	maintext_split_5,global,class=CODE,merge=1,split=1,delta=2
    29                           	psect	maintext_split_6,global,class=CODE,merge=1,split=1,delta=2
    30                           	dabs	1,0x7E,2
    31  0000                     
    32                           ; Version 1.42
    33                           ; Generated 13/04/2017 GMT
    34                           ; 
    35                           ; Copyright © 2017, Microchip Technology Inc. and its subsidiaries ("Microchip")
    36                           ; All rights reserved.
    37                           ; 
    38                           ; This software is developed by Microchip Technology Inc. and its subsidiaries ("Microch
      +                          ip").
    39                           ; 
    40                           ; Redistribution and use in source and binary forms, with or without modification, are
    41                           ; permitted provided that the following conditions are met:
    42                           ; 
    43                           ;     1. Redistributions of source code must retain the above copyright notice, this lis
      +                          t of
    44                           ;        conditions and the following disclaimer.
    45                           ; 
    46                           ;     2. Redistributions in binary form must reproduce the above copyright notice, this 
      +                          list
    47                           ;        of conditions and the following disclaimer in the documentation and/or other
    48                           ;        materials provided with the distribution.
    49                           ; 
    50                           ;     3. Microchip's name may not be used to endorse or promote products derived from th
      +                          is
    51                           ;        software without specific prior written permission.
    52                           ; 
    53                           ; THIS SOFTWARE IS PROVIDED BY MICROCHIP "AS IS" AND ANY EXPRESS OR IMPLIED WARRANTIES,
    54                           ; INCLUDING, BUT NOT LIMITED TO, THE IMPLIED WARRANTIES OF MERCHANTABILITY AND FITNESS F
      +                          OR
    55                           ; PURPOSE ARE DISCLAIMED.  IN NO EVENT SHALL MICROCHIP BE LIABLE FOR ANY DIRECT, INDIREC
      +                          T,
    56                           ; INCIDENTAL, SPECIAL, EXEMPLARY, OR CONSEQUENTIAL DAMAGES (INCLUDING BUT NOT LIMITED TO
    57                           ; PROCUREMENT OF SUBSTITUTE GOODS OR SERVICES; LOSS OF USE, DATA OR PROFITS; OR BUSINESS
    58                           ; INTERRUPTION) HOWSOEVER CAUSED AND ON ANY THEORY OF LIABILITY, WHETHER IN CONTRACT, ST
      +                          RICT
    59                           ; LIABILITY, OR TORT (INCLUDING NEGLIGENCE OR OTHERWISE) ARISING IN ANY WAY OUT OF THE U
      +                          SE OF
    60                           ; THIS SOFTWARE, EVEN IF ADVISED OF THE POSSIBILITY OF SUCH DAMAGE.
    61                           ; 
    62                           ; 
    63                           ; Code-generator required, PIC16F15325 Definitions
    64                           ; 
    65                           ; SFR Addresses
    66  0000                     	;# 
    67  0001                     	;# 
    68  0002                     	;# 
    69  0003                     	;# 
    70  0004                     	;# 
    71  0005                     	;# 
    72  0006                     	;# 
    73  0007                     	;# 
    74  0008                     	;# 
    75  0009                     	;# 
    76  000A                     	;# 
    77  000B                     	;# 
    78  000C                     	;# 
    79  000E                     	;# 
    80  0012                     	;# 
    81  0014                     	;# 
    82  0018                     	;# 
    83  001A                     	;# 
    84  009B                     	;# 
    85  009B                     	;# 
    86  009C                     	;# 
    87  009D                     	;# 
    88  009E                     	;# 
    89  009F                     	;# 
    90  0119                     	;# 
    91  0119                     	;# 
    92  0119                     	;# 
    93  011A                     	;# 
    94  011A                     	;# 
    95  011A                     	;# 
    96  011B                     	;# 
    97  011B                     	;# 
    98  011B                     	;# 
    99  011B                     	;# 
   100  011B                     	;# 
   101  011C                     	;# 
   102  011C                     	;# 
   103  011C                     	;# 
   104  011D                     	;# 
   105  011D                     	;# 
   106  011D                     	;# 
   107  011E                     	;# 
   108  011E                     	;# 
   109  011E                     	;# 
   110  011F                     	;# 
   111  011F                     	;# 
   112  011F                     	;# 
   113  011F                     	;# 
   114  011F                     	;# 
   115  018C                     	;# 
   116  018D                     	;# 
   117  018E                     	;# 
   118  018F                     	;# 
   119  0190                     	;# 
   120  0191                     	;# 
   121  0192                     	;# 
   122  020C                     	;# 
   123  020C                     	;# 
   124  020D                     	;# 
   125  020E                     	;# 
   126  020F                     	;# 
   127  020F                     	;# 
   128  0210                     	;# 
   129  0210                     	;# 
   130  0211                     	;# 
   131  0211                     	;# 
   132  028C                     	;# 
   133  028C                     	;# 
   134  028D                     	;# 
   135  028D                     	;# 
   136  028E                     	;# 
   137  028F                     	;# 
   138  0290                     	;# 
   139  0291                     	;# 
   140  030C                     	;# 
   141  030C                     	;# 
   142  030D                     	;# 
   143  030E                     	;# 
   144  030F                     	;# 
   145  0310                     	;# 
   146  0310                     	;# 
   147  0311                     	;# 
   148  0312                     	;# 
   149  0313                     	;# 
   150  0314                     	;# 
   151  0315                     	;# 
   152  0316                     	;# 
   153  0318                     	;# 
   154  0319                     	;# 
   155  031A                     	;# 
   156  031C                     	;# 
   157  031D                     	;# 
   158  031E                     	;# 
   159  038C                     	;# 
   160  038D                     	;# 
   161  038E                     	;# 
   162  058C                     	;# 
   163  058C                     	;# 
   164  058D                     	;# 
   165  058E                     	;# 
   166  058F                     	;# 
   167  058F                     	;# 
   168  0590                     	;# 
   169  0591                     	;# 
   170  0592                     	;# 
   171  0593                     	;# 
   172  059C                     	;# 
   173  059C                     	;# 
   174  059D                     	;# 
   175  059D                     	;# 
   176  059E                     	;# 
   177  059F                     	;# 
   178  060C                     	;# 
   179  060D                     	;# 
   180  060E                     	;# 
   181  060F                     	;# 
   182  0610                     	;# 
   183  0611                     	;# 
   184  0612                     	;# 
   185  0613                     	;# 
   186  0614                     	;# 
   187  070C                     	;# 
   188  070D                     	;# 
   189  070E                     	;# 
   190  070F                     	;# 
   191  0710                     	;# 
   192  0711                     	;# 
   193  0712                     	;# 
   194  0713                     	;# 
   195  0716                     	;# 
   196  0717                     	;# 
   197  0718                     	;# 
   198  0719                     	;# 
   199  071A                     	;# 
   200  071B                     	;# 
   201  071C                     	;# 
   202  071D                     	;# 
   203  0796                     	;# 
   204  0797                     	;# 
   205  0798                     	;# 
   206  0799                     	;# 
   207  079A                     	;# 
   208  079B                     	;# 
   209  080C                     	;# 
   210  080D                     	;# 
   211  080E                     	;# 
   212  080F                     	;# 
   213  0810                     	;# 
   214  0811                     	;# 
   215  0812                     	;# 
   216  0813                     	;# 
   217  0814                     	;# 
   218  081A                     	;# 
   219  081A                     	;# 
   220  081B                     	;# 
   221  081C                     	;# 
   222  081C                     	;# 
   223  081D                     	;# 
   224  081E                     	;# 
   225  081F                     	;# 
   226  088C                     	;# 
   227  088D                     	;# 
   228  088E                     	;# 
   229  088F                     	;# 
   230  0890                     	;# 
   231  0891                     	;# 
   232  0892                     	;# 
   233  0893                     	;# 
   234  0895                     	;# 
   235  0896                     	;# 
   236  090C                     	;# 
   237  090E                     	;# 
   238  090F                     	;# 
   239  091F                     	;# 
   240  098F                     	;# 
   241  098F                     	;# 
   242  0990                     	;# 
   243  0991                     	;# 
   244  0992                     	;# 
   245  0993                     	;# 
   246  0994                     	;# 
   247  0995                     	;# 
   248  0996                     	;# 
   249  0997                     	;# 
   250  0A19                     	;# 
   251  0A19                     	;# 
   252  0A1A                     	;# 
   253  0A1A                     	;# 
   254  0A1B                     	;# 
   255  0A1B                     	;# 
   256  0A1B                     	;# 
   257  0A1C                     	;# 
   258  0A1C                     	;# 
   259  0A1D                     	;# 
   260  0A1D                     	;# 
   261  0A1E                     	;# 
   262  0A1E                     	;# 
   263  0A1F                     	;# 
   264  0A1F                     	;# 
   265  0A1F                     	;# 
   266  1E0F                     	;# 
   267  1E10                     	;# 
   268  1E11                     	;# 
   269  1E12                     	;# 
   270  1E13                     	;# 
   271  1E14                     	;# 
   272  1E15                     	;# 
   273  1E16                     	;# 
   274  1E17                     	;# 
   275  1E18                     	;# 
   276  1E19                     	;# 
   277  1E1A                     	;# 
   278  1E1B                     	;# 
   279  1E1C                     	;# 
   280  1E1D                     	;# 
   281  1E1E                     	;# 
   282  1E1F                     	;# 
   283  1E20                     	;# 
   284  1E21                     	;# 
   285  1E22                     	;# 
   286  1E23                     	;# 
   287  1E24                     	;# 
   288  1E25                     	;# 
   289  1E26                     	;# 
   290  1E27                     	;# 
   291  1E28                     	;# 
   292  1E29                     	;# 
   293  1E2A                     	;# 
   294  1E2B                     	;# 
   295  1E2C                     	;# 
   296  1E2D                     	;# 
   297  1E2E                     	;# 
   298  1E2F                     	;# 
   299  1E30                     	;# 
   300  1E31                     	;# 
   301  1E32                     	;# 
   302  1E33                     	;# 
   303  1E34                     	;# 
   304  1E35                     	;# 
   305  1E36                     	;# 
   306  1E37                     	;# 
   307  1E8F                     	;# 
   308  1E90                     	;# 
   309  1E91                     	;# 
   310  1E92                     	;# 
   311  1E93                     	;# 
   312  1E9C                     	;# 
   313  1EA1                     	;# 
   314  1EA2                     	;# 
   315  1EB1                     	;# 
   316  1EBB                     	;# 
   317  1EBC                     	;# 
   318  1EBD                     	;# 
   319  1EBE                     	;# 
   320  1EC3                     	;# 
   321  1EC5                     	;# 
   322  1EC6                     	;# 
   323  1EC7                     	;# 
   324  1ECB                     	;# 
   325  1ECC                     	;# 
   326  1ECD                     	;# 
   327  1ECE                     	;# 
   328  1F10                     	;# 
   329  1F11                     	;# 
   330  1F12                     	;# 
   331  1F13                     	;# 
   332  1F14                     	;# 
   333  1F15                     	;# 
   334  1F20                     	;# 
   335  1F21                     	;# 
   336  1F22                     	;# 
   337  1F23                     	;# 
   338  1F24                     	;# 
   339  1F25                     	;# 
   340  1F38                     	;# 
   341  1F39                     	;# 
   342  1F3A                     	;# 
   343  1F3B                     	;# 
   344  1F3C                     	;# 
   345  1F3D                     	;# 
   346  1F3E                     	;# 
   347  1F3F                     	;# 
   348  1F4E                     	;# 
   349  1F4F                     	;# 
   350  1F50                     	;# 
   351  1F51                     	;# 
   352  1F52                     	;# 
   353  1F53                     	;# 
   354  1F54                     	;# 
   355  1F55                     	;# 
   356  1FE4                     	;# 
   357  1FE5                     	;# 
   358  1FE6                     	;# 
   359  1FE7                     	;# 
   360  1FE8                     	;# 
   361  1FE8                     	;# 
   362  1FE9                     	;# 
   363  1FEA                     	;# 
   364  1FEA                     	;# 
   365  1FEB                     	;# 
   366  1FED                     	;# 
   367  1FEE                     	;# 
   368  1FEF                     	;# 
   369  0000                     	;# 
   370  0001                     	;# 
   371  0002                     	;# 
   372  0003                     	;# 
   373  0004                     	;# 
   374  0005                     	;# 
   375  0006                     	;# 
   376  0007                     	;# 
   377  0008                     	;# 
   378  0009                     	;# 
   379  000A                     	;# 
   380  000B                     	;# 
   381  000C                     	;# 
   382  000E                     	;# 
   383  0012                     	;# 
   384  0014                     	;# 
   385  0018                     	;# 
   386  001A                     	;# 
   387  009B                     	;# 
   388  009B                     	;# 
   389  009C                     	;# 
   390  009D                     	;# 
   391  009E                     	;# 
   392  009F                     	;# 
   393  0119                     	;# 
   394  0119                     	;# 
   395  0119                     	;# 
   396  011A                     	;# 
   397  011A                     	;# 
   398  011A                     	;# 
   399  011B                     	;# 
   400  011B                     	;# 
   401  011B                     	;# 
   402  011B                     	;# 
   403  011B                     	;# 
   404  011C                     	;# 
   405  011C                     	;# 
   406  011C                     	;# 
   407  011D                     	;# 
   408  011D                     	;# 
   409  011D                     	;# 
   410  011E                     	;# 
   411  011E                     	;# 
   412  011E                     	;# 
   413  011F                     	;# 
   414  011F                     	;# 
   415  011F                     	;# 
   416  011F                     	;# 
   417  011F                     	;# 
   418  018C                     	;# 
   419  018D                     	;# 
   420  018E                     	;# 
   421  018F                     	;# 
   422  0190                     	;# 
   423  0191                     	;# 
   424  0192                     	;# 
   425  020C                     	;# 
   426  020C                     	;# 
   427  020D                     	;# 
   428  020E                     	;# 
   429  020F                     	;# 
   430  020F                     	;# 
   431  0210                     	;# 
   432  0210                     	;# 
   433  0211                     	;# 
   434  0211                     	;# 
   435  028C                     	;# 
   436  028C                     	;# 
   437  028D                     	;# 
   438  028D                     	;# 
   439  028E                     	;# 
   440  028F                     	;# 
   441  0290                     	;# 
   442  0291                     	;# 
   443  030C                     	;# 
   444  030C                     	;# 
   445  030D                     	;# 
   446  030E                     	;# 
   447  030F                     	;# 
   448  0310                     	;# 
   449  0310                     	;# 
   450  0311                     	;# 
   451  0312                     	;# 
   452  0313                     	;# 
   453  0314                     	;# 
   454  0315                     	;# 
   455  0316                     	;# 
   456  0318                     	;# 
   457  0319                     	;# 
   458  031A                     	;# 
   459  031C                     	;# 
   460  031D                     	;# 
   461  031E                     	;# 
   462  038C                     	;# 
   463  038D                     	;# 
   464  038E                     	;# 
   465  058C                     	;# 
   466  058C                     	;# 
   467  058D                     	;# 
   468  058E                     	;# 
   469  058F                     	;# 
   470  058F                     	;# 
   471  0590                     	;# 
   472  0591                     	;# 
   473  0592                     	;# 
   474  0593                     	;# 
   475  059C                     	;# 
   476  059C                     	;# 
   477  059D                     	;# 
   478  059D                     	;# 
   479  059E                     	;# 
   480  059F                     	;# 
   481  060C                     	;# 
   482  060D                     	;# 
   483  060E                     	;# 
   484  060F                     	;# 
   485  0610                     	;# 
   486  0611                     	;# 
   487  0612                     	;# 
   488  0613                     	;# 
   489  0614                     	;# 
   490  070C                     	;# 
   491  070D                     	;# 
   492  070E                     	;# 
   493  070F                     	;# 
   494  0710                     	;# 
   495  0711                     	;# 
   496  0712                     	;# 
   497  0713                     	;# 
   498  0716                     	;# 
   499  0717                     	;# 
   500  0718                     	;# 
   501  0719                     	;# 
   502  071A                     	;# 
   503  071B                     	;# 
   504  071C                     	;# 
   505  071D                     	;# 
   506  0796                     	;# 
   507  0797                     	;# 
   508  0798                     	;# 
   509  0799                     	;# 
   510  079A                     	;# 
   511  079B                     	;# 
   512  080C                     	;# 
   513  080D                     	;# 
   514  080E                     	;# 
   515  080F                     	;# 
   516  0810                     	;# 
   517  0811                     	;# 
   518  0812                     	;# 
   519  0813                     	;# 
   520  0814                     	;# 
   521  081A                     	;# 
   522  081A                     	;# 
   523  081B                     	;# 
   524  081C                     	;# 
   525  081C                     	;# 
   526  081D                     	;# 
   527  081E                     	;# 
   528  081F                     	;# 
   529  088C                     	;# 
   530  088D                     	;# 
   531  088E                     	;# 
   532  088F                     	;# 
   533  0890                     	;# 
   534  0891                     	;# 
   535  0892                     	;# 
   536  0893                     	;# 
   537  0895                     	;# 
   538  0896                     	;# 
   539  090C                     	;# 
   540  090E                     	;# 
   541  090F                     	;# 
   542  091F                     	;# 
   543  098F                     	;# 
   544  098F                     	;# 
   545  0990                     	;# 
   546  0991                     	;# 
   547  0992                     	;# 
   548  0993                     	;# 
   549  0994                     	;# 
   550  0995                     	;# 
   551  0996                     	;# 
   552  0997                     	;# 
   553  0A19                     	;# 
   554  0A19                     	;# 
   555  0A1A                     	;# 
   556  0A1A                     	;# 
   557  0A1B                     	;# 
   558  0A1B                     	;# 
   559  0A1B                     	;# 
   560  0A1C                     	;# 
   561  0A1C                     	;# 
   562  0A1D                     	;# 
   563  0A1D                     	;# 
   564  0A1E                     	;# 
   565  0A1E                     	;# 
   566  0A1F                     	;# 
   567  0A1F                     	;# 
   568  0A1F                     	;# 
   569  1E0F                     	;# 
   570  1E10                     	;# 
   571  1E11                     	;# 
   572  1E12                     	;# 
   573  1E13                     	;# 
   574  1E14                     	;# 
   575  1E15                     	;# 
   576  1E16                     	;# 
   577  1E17                     	;# 
   578  1E18                     	;# 
   579  1E19                     	;# 
   580  1E1A                     	;# 
   581  1E1B                     	;# 
   582  1E1C                     	;# 
   583  1E1D                     	;# 
   584  1E1E                     	;# 
   585  1E1F                     	;# 
   586  1E20                     	;# 
   587  1E21                     	;# 
   588  1E22                     	;# 
   589  1E23                     	;# 
   590  1E24                     	;# 
   591  1E25                     	;# 
   592  1E26                     	;# 
   593  1E27                     	;# 
   594  1E28                     	;# 
   595  1E29                     	;# 
   596  1E2A                     	;# 
   597  1E2B                     	;# 
   598  1E2C                     	;# 
   599  1E2D                     	;# 
   600  1E2E                     	;# 
   601  1E2F                     	;# 
   602  1E30                     	;# 
   603  1E31                     	;# 
   604  1E32                     	;# 
   605  1E33                     	;# 
   606  1E34                     	;# 
   607  1E35                     	;# 
   608  1E36                     	;# 
   609  1E37                     	;# 
   610  1E8F                     	;# 
   611  1E90                     	;# 
   612  1E91                     	;# 
   613  1E92                     	;# 
   614  1E93                     	;# 
   615  1E9C                     	;# 
   616  1EA1                     	;# 
   617  1EA2                     	;# 
   618  1EB1                     	;# 
   619  1EBB                     	;# 
   620  1EBC                     	;# 
   621  1EBD                     	;# 
   622  1EBE                     	;# 
   623  1EC3                     	;# 
   624  1EC5                     	;# 
   625  1EC6                     	;# 
   626  1EC7                     	;# 
   627  1ECB                     	;# 
   628  1ECC                     	;# 
   629  1ECD                     	;# 
   630  1ECE                     	;# 
   631  1F10                     	;# 
   632  1F11                     	;# 
   633  1F12                     	;# 
   634  1F13                     	;# 
   635  1F14                     	;# 
   636  1F15                     	;# 
   637  1F20                     	;# 
   638  1F21                     	;# 
   639  1F22                     	;# 
   640  1F23                     	;# 
   641  1F24                     	;# 
   642  1F25                     	;# 
   643  1F38                     	;# 
   644  1F39                     	;# 
   645  1F3A                     	;# 
   646  1F3B                     	;# 
   647  1F3C                     	;# 
   648  1F3D                     	;# 
   649  1F3E                     	;# 
   650  1F3F                     	;# 
   651  1F4E                     	;# 
   652  1F4F                     	;# 
   653  1F50                     	;# 
   654  1F51                     	;# 
   655  1F52                     	;# 
   656  1F53                     	;# 
   657  1F54                     	;# 
   658  1F55                     	;# 
   659  1FE4                     	;# 
   660  1FE5                     	;# 
   661  1FE6                     	;# 
   662  1FE7                     	;# 
   663  1FE8                     	;# 
   664  1FE8                     	;# 
   665  1FE9                     	;# 
   666  1FEA                     	;# 
   667  1FEA                     	;# 
   668  1FEB                     	;# 
   669  1FED                     	;# 
   670  1FEE                     	;# 
   671  1FEF                     	;# 
   672  0000                     	;# 
   673  0001                     	;# 
   674  0002                     	;# 
   675  0003                     	;# 
   676  0004                     	;# 
   677  0005                     	;# 
   678  0006                     	;# 
   679  0007                     	;# 
   680  0008                     	;# 
   681  0009                     	;# 
   682  000A                     	;# 
   683  000B                     	;# 
   684  000C                     	;# 
   685  000E                     	;# 
   686  0012                     	;# 
   687  0014                     	;# 
   688  0018                     	;# 
   689  001A                     	;# 
   690  009B                     	;# 
   691  009B                     	;# 
   692  009C                     	;# 
   693  009D                     	;# 
   694  009E                     	;# 
   695  009F                     	;# 
   696  0119                     	;# 
   697  0119                     	;# 
   698  0119                     	;# 
   699  011A                     	;# 
   700  011A                     	;# 
   701  011A                     	;# 
   702  011B                     	;# 
   703  011B                     	;# 
   704  011B                     	;# 
   705  011B                     	;# 
   706  011B                     	;# 
   707  011C                     	;# 
   708  011C                     	;# 
   709  011C                     	;# 
   710  011D                     	;# 
   711  011D                     	;# 
   712  011D                     	;# 
   713  011E                     	;# 
   714  011E                     	;# 
   715  011E                     	;# 
   716  011F                     	;# 
   717  011F                     	;# 
   718  011F                     	;# 
   719  011F                     	;# 
   720  011F                     	;# 
   721  018C                     	;# 
   722  018D                     	;# 
   723  018E                     	;# 
   724  018F                     	;# 
   725  0190                     	;# 
   726  0191                     	;# 
   727  0192                     	;# 
   728  020C                     	;# 
   729  020C                     	;# 
   730  020D                     	;# 
   731  020E                     	;# 
   732  020F                     	;# 
   733  020F                     	;# 
   734  0210                     	;# 
   735  0210                     	;# 
   736  0211                     	;# 
   737  0211                     	;# 
   738  028C                     	;# 
   739  028C                     	;# 
   740  028D                     	;# 
   741  028D                     	;# 
   742  028E                     	;# 
   743  028F                     	;# 
   744  0290                     	;# 
   745  0291                     	;# 
   746  030C                     	;# 
   747  030C                     	;# 
   748  030D                     	;# 
   749  030E                     	;# 
   750  030F                     	;# 
   751  0310                     	;# 
   752  0310                     	;# 
   753  0311                     	;# 
   754  0312                     	;# 
   755  0313                     	;# 
   756  0314                     	;# 
   757  0315                     	;# 
   758  0316                     	;# 
   759  0318                     	;# 
   760  0319                     	;# 
   761  031A                     	;# 
   762  031C                     	;# 
   763  031D                     	;# 
   764  031E                     	;# 
   765  038C                     	;# 
   766  038D                     	;# 
   767  038E                     	;# 
   768  058C                     	;# 
   769  058C                     	;# 
   770  058D                     	;# 
   771  058E                     	;# 
   772  058F                     	;# 
   773  058F                     	;# 
   774  0590                     	;# 
   775  0591                     	;# 
   776  0592                     	;# 
   777  0593                     	;# 
   778  059C                     	;# 
   779  059C                     	;# 
   780  059D                     	;# 
   781  059D                     	;# 
   782  059E                     	;# 
   783  059F                     	;# 
   784  060C                     	;# 
   785  060D                     	;# 
   786  060E                     	;# 
   787  060F                     	;# 
   788  0610                     	;# 
   789  0611                     	;# 
   790  0612                     	;# 
   791  0613                     	;# 
   792  0614                     	;# 
   793  070C                     	;# 
   794  070D                     	;# 
   795  070E                     	;# 
   796  070F                     	;# 
   797  0710                     	;# 
   798  0711                     	;# 
   799  0712                     	;# 
   800  0713                     	;# 
   801  0716                     	;# 
   802  0717                     	;# 
   803  0718                     	;# 
   804  0719                     	;# 
   805  071A                     	;# 
   806  071B                     	;# 
   807  071C                     	;# 
   808  071D                     	;# 
   809  0796                     	;# 
   810  0797                     	;# 
   811  0798                     	;# 
   812  0799                     	;# 
   813  079A                     	;# 
   814  079B                     	;# 
   815  080C                     	;# 
   816  080D                     	;# 
   817  080E                     	;# 
   818  080F                     	;# 
   819  0810                     	;# 
   820  0811                     	;# 
   821  0812                     	;# 
   822  0813                     	;# 
   823  0814                     	;# 
   824  081A                     	;# 
   825  081A                     	;# 
   826  081B                     	;# 
   827  081C                     	;# 
   828  081C                     	;# 
   829  081D                     	;# 
   830  081E                     	;# 
   831  081F                     	;# 
   832  088C                     	;# 
   833  088D                     	;# 
   834  088E                     	;# 
   835  088F                     	;# 
   836  0890                     	;# 
   837  0891                     	;# 
   838  0892                     	;# 
   839  0893                     	;# 
   840  0895                     	;# 
   841  0896                     	;# 
   842  090C                     	;# 
   843  090E                     	;# 
   844  090F                     	;# 
   845  091F                     	;# 
   846  098F                     	;# 
   847  098F                     	;# 
   848  0990                     	;# 
   849  0991                     	;# 
   850  0992                     	;# 
   851  0993                     	;# 
   852  0994                     	;# 
   853  0995                     	;# 
   854  0996                     	;# 
   855  0997                     	;# 
   856  0A19                     	;# 
   857  0A19                     	;# 
   858  0A1A                     	;# 
   859  0A1A                     	;# 
   860  0A1B                     	;# 
   861  0A1B                     	;# 
   862  0A1B                     	;# 
   863  0A1C                     	;# 
   864  0A1C                     	;# 
   865  0A1D                     	;# 
   866  0A1D                     	;# 
   867  0A1E                     	;# 
   868  0A1E                     	;# 
   869  0A1F                     	;# 
   870  0A1F                     	;# 
   871  0A1F                     	;# 
   872  1E0F                     	;# 
   873  1E10                     	;# 
   874  1E11                     	;# 
   875  1E12                     	;# 
   876  1E13                     	;# 
   877  1E14                     	;# 
   878  1E15                     	;# 
   879  1E16                     	;# 
   880  1E17                     	;# 
   881  1E18                     	;# 
   882  1E19                     	;# 
   883  1E1A                     	;# 
   884  1E1B                     	;# 
   885  1E1C                     	;# 
   886  1E1D                     	;# 
   887  1E1E                     	;# 
   888  1E1F                     	;# 
   889  1E20                     	;# 
   890  1E21                     	;# 
   891  1E22                     	;# 
   892  1E23                     	;# 
   893  1E24                     	;# 
   894  1E25                     	;# 
   895  1E26                     	;# 
   896  1E27                     	;# 
   897  1E28                     	;# 
   898  1E29                     	;# 
   899  1E2A                     	;# 
   900  1E2B                     	;# 
   901  1E2C                     	;# 
   902  1E2D                     	;# 
   903  1E2E                     	;# 
   904  1E2F                     	;# 
   905  1E30                     	;# 
   906  1E31                     	;# 
   907  1E32                     	;# 
   908  1E33                     	;# 
   909  1E34                     	;# 
   910  1E35                     	;# 
   911  1E36                     	;# 
   912  1E37                     	;# 
   913  1E8F                     	;# 
   914  1E90                     	;# 
   915  1E91                     	;# 
   916  1E92                     	;# 
   917  1E93                     	;# 
   918  1E9C                     	;# 
   919  1EA1                     	;# 
   920  1EA2                     	;# 
   921  1EB1                     	;# 
   922  1EBB                     	;# 
   923  1EBC                     	;# 
   924  1EBD                     	;# 
   925  1EBE                     	;# 
   926  1EC3                     	;# 
   927  1EC5                     	;# 
   928  1EC6                     	;# 
   929  1EC7                     	;# 
   930  1ECB                     	;# 
   931  1ECC                     	;# 
   932  1ECD                     	;# 
   933  1ECE                     	;# 
   934  1F10                     	;# 
   935  1F11                     	;# 
   936  1F12                     	;# 
   937  1F13                     	;# 
   938  1F14                     	;# 
   939  1F15                     	;# 
   940  1F20                     	;# 
   941  1F21                     	;# 
   942  1F22                     	;# 
   943  1F23                     	;# 
   944  1F24                     	;# 
   945  1F25                     	;# 
   946  1F38                     	;# 
   947  1F39                     	;# 
   948  1F3A                     	;# 
   949  1F3B                     	;# 
   950  1F3C                     	;# 
   951  1F3D                     	;# 
   952  1F3E                     	;# 
   953  1F3F                     	;# 
   954  1F4E                     	;# 
   955  1F4F                     	;# 
   956  1F50                     	;# 
   957  1F51                     	;# 
   958  1F52                     	;# 
   959  1F53                     	;# 
   960  1F54                     	;# 
   961  1F55                     	;# 
   962  1FE4                     	;# 
   963  1FE5                     	;# 
   964  1FE6                     	;# 
   965  1FE7                     	;# 
   966  1FE8                     	;# 
   967  1FE8                     	;# 
   968  1FE9                     	;# 
   969  1FEA                     	;# 
   970  1FEA                     	;# 
   971  1FEB                     	;# 
   972  1FED                     	;# 
   973  1FEE                     	;# 
   974  1FEF                     	;# 
   975                           
   976                           	psect	idataBANK0
   977  09A6                     __pidataBANK0:	
   978                           
   979                           ;initializer for _randx
   980  09A6  3401               	retlw	1
   981  09A7  3400               	retlw	0
   982  09A8  3400               	retlw	0
   983  09A9  3400               	retlw	0
   984                           
   985                           	psect	idataBANK2
   986  0A0A                     __pidataBANK2:	
   987                           
   988                           ;initializer for main@F7844
   989  0A0A  3443               	retlw	67
   990  0A0B  346F               	retlw	111
   991  0A0C  346E               	retlw	110
   992  0A0D  3467               	retlw	103
   993  0A0E  3472               	retlw	114
   994  0A0F  3461               	retlw	97
   995  0A10  3474               	retlw	116
   996  0A11  3473               	retlw	115
   997  0A12  3420               	retlw	32
   998  0A13  346F               	retlw	111
   999  0A14  346E               	retlw	110
  1000  0A15  3420               	retlw	32
  1001  0A16  3467               	retlw	103
  1002  0A17  3465               	retlw	101
  1003  0A18  3474               	retlw	116
  1004  0A19  3474               	retlw	116
  1005  0A1A  3469               	retlw	105
  1006  0A1B  346E               	retlw	110
  1007  0A1C  3467               	retlw	103
  1008  0A1D  3420               	retlw	32
  1009  0A1E  3468               	retlw	104
  1010  0A1F  3465               	retlw	101
  1011  0A20  3472               	retlw	114
  1012  0A21  3465               	retlw	101
  1013  0A22  3421               	retlw	33
  1014  0A23  3420               	retlw	32
  1015  0A24  3420               	retlw	32
  1016  0A25  344E               	retlw	78
  1017  0A26  346F               	retlw	111
  1018  0A27  3474               	retlw	116
  1019  0A28  3420               	retlw	32
  1020  0A29  3467               	retlw	103
  1021  0A2A  346F               	retlw	111
  1022  0A2B  346E               	retlw	110
  1023  0A2C  346E               	retlw	110
  1024  0A2D  3461               	retlw	97
  1025  0A2E  3420               	retlw	32
  1026  0A2F  3466               	retlw	102
  1027  0A30  3469               	retlw	105
  1028  0A31  346E               	retlw	110
  1029  0A32  3464               	retlw	100
  1030  0A33  3420               	retlw	32
  1031  0A34  346D               	retlw	109
  1032  0A35  3475               	retlw	117
  1033  0A36  3463               	retlw	99
  1034  0A37  3468               	retlw	104
  1035  0A38  3420               	retlw	32
  1036  0A39  3468               	retlw	104
  1037  0A3A  3465               	retlw	101
  1038  0A3B  3472               	retlw	114
  1039  0A3C  3465               	retlw	101
  1040  0A3D  342E               	retlw	46
  1041  0A3E  3400               	retlw	0
  1042  0018                     _LATAbits	set	24
  1043  001A                     _LATCbits	set	26
  1044  000E                     _PORTCbits	set	14
  1045  0014                     _TRISC	set	20
  1046  0012                     _TRISA	set	18
  1047  001A                     _LATC	set	26
  1048  0018                     _LATA	set	24
  1049  0892                     _OSCTUNE	set	2194
  1050  0890                     _OSCSTAT	set	2192
  1051  0893                     _OSCFRQ	set	2195
  1052  0891                     _OSCEN	set	2193
  1053  088F                     _OSCCON3	set	2191
  1054  088D                     _OSCCON1	set	2189
  1055  1F50                     _ODCONC	set	8016
  1056  1F3A                     _ODCONA	set	7994
  1057  1F4F                     _WPUC	set	8015
  1058  1F39                     _WPUA	set	7993
  1059  1F38                     _ANSELA	set	7992
  1060  1F4E                     _ANSELC	set	8014
  1061                           
  1062                           ; #config settings
  1063  0000                     
  1064                           	psect	cinit
  1065  07E6                     start_initialization:	
  1066  07E6                     __initialization:	
  1067                           
  1068                           ; Initialize objects allocated to BANK0
  1069  07E6  30A6               	movlw	low __pidataBANK0
  1070  07E7  0084               	movwf	4
  1071  07E8  3089               	movlw	(high __pidataBANK0)| (0+128)
  1072  07E9  0085               	movwf	5
  1073  07EA  303F               	movlw	low __pdataBANK0
  1074  07EB  0086               	movwf	6
  1075  07EC  3000               	movlw	high __pdataBANK0
  1076  07ED  0087               	movwf	7
  1077  07EE  3004               	movlw	4
  1078  07EF  3180  2018  3187   	fcall	init_ram
  1079                           
  1080                           ; Initialize objects allocated to BANK2
  1081  07F2  300A               	movlw	low __pidataBANK2
  1082  07F3  0084               	movwf	4
  1083  07F4  308A               	movlw	(high __pidataBANK2)| (0+128)
  1084  07F5  0085               	movwf	5
  1085  07F6  3020               	movlw	low __pdataBANK2
  1086  07F7  0086               	movwf	6
  1087  07F8  3001               	movlw	high __pdataBANK2
  1088  07F9  0087               	movwf	7
  1089  07FA  3035               	movlw	53
  1090  07FB  3180  2018         	fcall	init_ram
  1091  07FD                     end_of_initialization:	
  1092                           ;End of C runtime variable initialization code
  1093                           
  1094  07FD                     __end_of__initialization:	
  1095  07FD  0140               	movlb	0
  1096  07FE  318D  2D86         	ljmp	_main	;jump to C main() function
  1097                           
  1098                           	psect	dataBANK0
  1099  003F                     __pdataBANK0:	
  1100  003F                     _randx:	
  1101  003F                     	ds	4
  1102                           
  1103                           	psect	dataBANK2
  1104  0120                     __pdataBANK2:	
  1105  0120                     main@F7844:	
  1106  0120                     	ds	53
  1107                           
  1108                           	psect	inittext
  1109  0018                     init_ram:	
  1110  0018  00FE               	movwf	126
  1111  0019                     initloop:	
  1112  0019  0012               	moviw fsr0++
  1113  001A  001E               	movwi fsr1++
  1114  001B  0BFE               	decfsz	126,f
  1115  001C  2819               	goto	initloop
  1116  001D  3400               	retlw	0
  1117                           
  1118                           	psect	cstackBANK1
  1119  00A0                     __pcstackBANK1:	
  1120  00A0                     main@string:	
  1121                           
  1122                           ; 53 bytes @ 0x0
  1123  00A0                     	ds	53
  1124  00D5                     main@button_pushed:	
  1125                           
  1126                           ; 2 bytes @ 0x35
  1127  00D5                     	ds	2
  1128  00D7                     main@state:	
  1129                           
  1130                           ; 1 bytes @ 0x37
  1131  00D7                     	ds	1
  1132  00D8                     main@randomnumber:	
  1133                           
  1134                           ; 2 bytes @ 0x38
  1135  00D8                     	ds	2
  1136  00DA                     main@spaceDelay:	
  1137                           
  1138                           ; 2 bytes @ 0x3A
  1139  00DA                     	ds	2
  1140  00DC                     main@dotDelay:	
  1141                           
  1142                           ; 2 bytes @ 0x3C
  1143  00DC                     	ds	2
  1144                           
  1145                           	psect	cstackCOMMON
  1146  0070                     __pcstackCOMMON:	
  1147  0070                     ?_OSCILLATOR_Initialize:	
  1148  0070                     ??_OSCILLATOR_Initialize:	
  1149                           ; 1 bytes @ 0x0
  1150                           
  1151  0070                     ?_PIN_MANAGER_Initialize:	
  1152                           ; 1 bytes @ 0x0
  1153                           
  1154  0070                     ??_PIN_MANAGER_Initialize:	
  1155                           ; 1 bytes @ 0x0
  1156                           
  1157  0070                     ?_SYSTEM_Initialize:	
  1158                           ; 1 bytes @ 0x0
  1159                           
  1160  0070                     ??_SYSTEM_Initialize:	
  1161                           ; 1 bytes @ 0x0
  1162                           
  1163  0070                     ?_main:	
  1164                           ; 1 bytes @ 0x0
  1165                           
  1166  0070                     ?___lmul:	
  1167                           ; 1 bytes @ 0x0
  1168                           
  1169  0070                     ___lmul@multiplier:	
  1170                           ; 4 bytes @ 0x0
  1171                           
  1172                           
  1173                           ; 4 bytes @ 0x0
  1174  0070                     	ds	4
  1175  0074                     ___lmul@multiplicand:	
  1176                           
  1177                           ; 4 bytes @ 0x4
  1178  0074                     	ds	4
  1179  0078                     ??___lmul:	
  1180  0078                     ___lmul@product:	
  1181                           ; 1 bytes @ 0x8
  1182                           
  1183                           
  1184                           ; 4 bytes @ 0x8
  1185  0078                     	ds	4
  1186  007C                     ?_rand:	
  1187                           
  1188                           ; 2 bytes @ 0xC
  1189  007C                     	ds	2
  1190  007E                     ??_delay_ms:	
  1191  007E                     ??_light:	
  1192                           ; 1 bytes @ 0xE
  1193                           
  1194                           
  1195                           	psect	cstackBANK0
  1196  0020                     __pcstackBANK0:	
  1197                           ; 1 bytes @ 0xE
  1198                           
  1199  0020                     ??_rand:	
  1200                           
  1201                           ; 1 bytes @ 0x0
  1202  0020                     	ds	5
  1203  0025                     ?___awmod:	
  1204  0025                     ___awmod@divisor:	
  1205                           ; 2 bytes @ 0x5
  1206                           
  1207                           
  1208                           ; 2 bytes @ 0x5
  1209  0025                     	ds	2
  1210  0027                     ___awmod@dividend:	
  1211                           
  1212                           ; 2 bytes @ 0x7
  1213  0027                     	ds	2
  1214  0029                     ??___awmod:	
  1215                           
  1216                           ; 1 bytes @ 0x9
  1217  0029                     	ds	1
  1218  002A                     ___awmod@counter:	
  1219                           
  1220                           ; 1 bytes @ 0xA
  1221  002A                     	ds	1
  1222  002B                     ___awmod@sign:	
  1223                           
  1224                           ; 1 bytes @ 0xB
  1225  002B                     	ds	1
  1226  002C                     ?_delay_ms:	
  1227  002C                     delay_ms@milliseconds:	
  1228                           ; 1 bytes @ 0xC
  1229                           
  1230                           
  1231                           ; 2 bytes @ 0xC
  1232  002C                     	ds	2
  1233  002E                     ?_light:	
  1234  002E                     light@l7:	
  1235                           ; 1 bytes @ 0xE
  1236                           
  1237                           
  1238                           ; 2 bytes @ 0xE
  1239  002E                     	ds	2
  1240  0030                     light@l6:	
  1241                           
  1242                           ; 2 bytes @ 0x10
  1243  0030                     	ds	2
  1244  0032                     light@l5:	
  1245                           
  1246                           ; 2 bytes @ 0x12
  1247  0032                     	ds	2
  1248  0034                     light@l4:	
  1249                           
  1250                           ; 2 bytes @ 0x14
  1251  0034                     	ds	2
  1252  0036                     light@l3:	
  1253                           
  1254                           ; 2 bytes @ 0x16
  1255  0036                     	ds	2
  1256  0038                     light@l2:	
  1257                           
  1258                           ; 2 bytes @ 0x18
  1259  0038                     	ds	2
  1260  003A                     light@l1:	
  1261                           
  1262                           ; 2 bytes @ 0x1A
  1263  003A                     	ds	2
  1264  003C                     light@d:	
  1265                           
  1266                           ; 2 bytes @ 0x1C
  1267  003C                     	ds	2
  1268  003E                     ??_main:	
  1269                           
  1270                           ; 1 bytes @ 0x1E
  1271  003E                     	ds	1
  1272                           
  1273                           	psect	maintext
  1274  0D86                     __pmaintext:	
  1275 ;;
  1276 ;;Main: autosize = 0, tempsize = 1, incstack = 0, save=0
  1277 ;;
  1278 ;; *************** function _main *****************
  1279 ;; Defined at:
  1280 ;;		line 12 in file "main.c"
  1281 ;; Parameters:    Size  Location     Type
  1282 ;;		None
  1283 ;; Auto vars:     Size  Location     Type
  1284 ;;  string         53    0[BANK1 ] unsigned char [53]
  1285 ;;  dotDelay        2   60[BANK1 ] int 
  1286 ;;  spaceDelay      2   58[BANK1 ] int 
  1287 ;;  randomnumber    2   56[BANK1 ] int 
  1288 ;;  button_pushe    2   53[BANK1 ] int 
  1289 ;;  state           1   55[BANK1 ] enum E7827
  1290 ;; Return value:  Size  Location     Type
  1291 ;;                  1    wreg      void 
  1292 ;; Registers used:
  1293 ;;		wreg, fsr0l, fsr0h, fsr1l, fsr1h, status,2, status,0, pclath, cstack
  1294 ;; Tracked objects:
  1295 ;;		On entry : B3F/0
  1296 ;;		On exit  : 0/0
  1297 ;;		Unchanged: 0/0
  1298 ;; Data sizes:     COMMON   BANK0   BANK1   BANK2   BANK3   BANK4   BANK5   BANK6   BANK7   BANK8   BANK9  BANK10  BANK1
      +1  BANK12
  1299 ;;      Params:         0       0       0       0       0       0       0       0       0       0       0       0       
      +0       0
  1300 ;;      Locals:         0       0      62       0       0       0       0       0       0       0       0       0       
      +0       0
  1301 ;;      Temps:          0       1       0       0       0       0       0       0       0       0       0       0       
      +0       0
  1302 ;;      Totals:         0       1      62       0       0       0       0       0       0       0       0       0       
      +0       0
  1303 ;;Total ram usage:       63 bytes
  1304 ;; Hardware stack levels required when called:    2
  1305 ;; This function calls:
  1306 ;;		_SYSTEM_Initialize
  1307 ;;		___awmod
  1308 ;;		_delay_ms
  1309 ;;		_light
  1310 ;;		_rand
  1311 ;; This function is called by:
  1312 ;;		Startup code after reset
  1313 ;; This function uses a non-reentrant model
  1314 ;;
  1315                           
  1316                           
  1317                           ;psect for function _main
  1318  0D86                     _main:	
  1319                           
  1320                           ;main.c: 15: SYSTEM_Initialize();
  1321                           
  1322                           ;incstack = 0
  1323                           ; Regs used in _main: [wreg-fsr1h+status,2+status,0+pclath+cstack]
  1324  0D86  3189  21AA  318D   	fcall	_SYSTEM_Initialize
  1325                           
  1326                           ;main.c: 17: typedef enum
  1327                           ;main.c: 18: {
  1328                           ;main.c: 19: SLEEP,
  1329                           ;main.c: 20: ON,
  1330                           ;main.c: 21: BLINK_SLOW,
  1331                           ;main.c: 22: BLINK_FAST,
  1332                           ;main.c: 23: RUN,
  1333                           ;main.c: 24: RANDOM,
  1334                           ;main.c: 25: RAILROAD,
  1335                           ;main.c: 26: TAE,
  1336                           ;main.c: 27: RBLINK
  1337                           ;main.c: 28: } state_type;
  1338                           ;main.c: 30: int button_pushed = 0;
  1339  0D89  0141               	movlb	1	; select bank1
  1340  0D8A  01D5               	clrf	main@button_pushed^(0+128)
  1341  0D8B  01D6               	clrf	(main@button_pushed+1)^(0+128)
  1342                           
  1343                           ;main.c: 31: state_type state = SLEEP;
  1344  0D8C  01D7               	clrf	main@state^(0+128)
  1345                           
  1346                           ;main.c: 32: int dotDelay = 8;
  1347  0D8D  3008               	movlw	8
  1348  0D8E  00DC               	movwf	main@dotDelay^(0+128)
  1349  0D8F  3000               	movlw	0
  1350  0D90  00DD               	movwf	(main@dotDelay^(0+128)+1)
  1351                           
  1352                           ;main.c: 33: int spaceDelay = 16;
  1353  0D91  3010               	movlw	16
  1354  0D92  00DA               	movwf	main@spaceDelay^(0+128)
  1355  0D93  3000               	movlw	0
  1356  0D94  00DB               	movwf	(main@spaceDelay^(0+128)+1)
  1357                           
  1358                           ;main.c: 34: int randomnumber;
  1359                           ;main.c: 35: char string[] = "Congrats on getting here!  Not gonna find much here.";
  1360  0D95  3020               	movlw	low main@F7844
  1361  0D96  0086               	movwf	6
  1362  0D97  3001               	movlw	high main@F7844
  1363  0D98  0087               	movwf	7
  1364  0D99  30A0               	movlw	low main@string
  1365  0D9A  0084               	movwf	4
  1366  0D9B  3000               	movlw	high main@string
  1367  0D9C  0085               	movwf	5
  1368  0D9D  3035               	movlw	53
  1369  0D9E  0140               	movlb	0	; select bank0
  1370  0D9F  00BE               	movwf	??_main
  1371  0DA0                     u1110:	
  1372  0DA0  0016               	moviw fsr1++
  1373  0DA1  001A               	movwi fsr0++
  1374  0DA2  0BBE               	decfsz	??_main,f
  1375  0DA3  2DA0               	goto	u1110
  1376  0DA4                     l1279:	
  1377                           ;main.c: 52: while (1)
  1378                           
  1379                           
  1380                           ;main.c: 53: {
  1381                           ;main.c: 55: if(PORTCbits.RC4==0)
  1382  0DA4  0140               	movlb	0	; select bank0
  1383  0DA5  1A0E               	btfsc	14,4	;volatile
  1384  0DA6  2DC6               	goto	l1287
  1385                           
  1386                           ;main.c: 56: {
  1387                           ;main.c: 57: delay_ms(5);
  1388  0DA7  3005               	movlw	5
  1389  0DA8  00AC               	movwf	delay_ms@milliseconds
  1390  0DA9  3000               	movlw	0
  1391  0DAA  00AD               	movwf	delay_ms@milliseconds+1
  1392  0DAB  3189  21BA  318D   	fcall	_delay_ms
  1393  0DAE                     l1285:	
  1394                           ;main.c: 58: while (PORTCbits.RC4==0)
  1395                           
  1396  0DAE  0140               	movlb	0	; select bank0
  1397  0DAF  1A0E               	btfsc	14,4	;volatile
  1398  0DB0  2DBF               	goto	l90
  1399                           
  1400                           ;main.c: 59: {
  1401                           ;main.c: 60: do { LATCbits.LATC3 = 1; } while(0);
  1402  0DB1  0140               	movlb	0	; select bank0
  1403  0DB2  159A               	bsf	26,3	;volatile
  1404                           
  1405                           ;main.c: 61: do { LATCbits.LATC2 = 1; } while(0);
  1406  0DB3  151A               	bsf	26,2	;volatile
  1407                           
  1408                           ;main.c: 62: do { LATCbits.LATC1 = 1; } while(0);
  1409  0DB4  149A               	bsf	26,1	;volatile
  1410                           
  1411                           ;main.c: 63: do { LATCbits.LATC0 = 1; } while(0);
  1412  0DB5  141A               	bsf	26,0	;volatile
  1413                           
  1414                           ;main.c: 64: do { LATAbits.LATA2 = 1; } while(0);
  1415  0DB6  1518               	bsf	24,2	;volatile
  1416                           
  1417                           ;main.c: 65: do { LATAbits.LATA1 = 1; } while(0);
  1418  0DB7  1498               	bsf	24,1	;volatile
  1419                           
  1420                           ;main.c: 66: do { LATAbits.LATA0 = 1; } while(0);
  1421  0DB8  1418               	bsf	24,0	;volatile
  1422                           
  1423                           ;main.c: 67: button_pushed=1;
  1424  0DB9  3001               	movlw	1
  1425  0DBA  0141               	movlb	1	; select bank1
  1426  0DBB  00D5               	movwf	main@button_pushed^(0+128)
  1427  0DBC  3000               	movlw	0
  1428  0DBD  00D6               	movwf	(main@button_pushed^(0+128)+1)
  1429  0DBE  2DAE               	goto	l1285
  1430  0DBF                     l90:	
  1431                           ;main.c: 68: }
  1432                           ;main.c: 69: do { LATCbits.LATC3 = 0; } while(0);
  1433                           
  1434  0DBF  119A               	bcf	26,3	;volatile
  1435                           
  1436                           ;main.c: 70: do { LATCbits.LATC2 = 0; } while(0);
  1437  0DC0  111A               	bcf	26,2	;volatile
  1438                           
  1439                           ;main.c: 71: do { LATCbits.LATC1 = 0; } while(0);
  1440  0DC1  109A               	bcf	26,1	;volatile
  1441                           
  1442                           ;main.c: 72: do { LATCbits.LATC0 = 0; } while(0);
  1443  0DC2  101A               	bcf	26,0	;volatile
  1444                           
  1445                           ;main.c: 73: do { LATAbits.LATA2 = 0; } while(0);
  1446  0DC3  1118               	bcf	24,2	;volatile
  1447                           
  1448                           ;main.c: 74: do { LATAbits.LATA1 = 0; } while(0);
  1449  0DC4  1098               	bcf	24,1	;volatile
  1450                           
  1451                           ;main.c: 75: do { LATAbits.LATA0 = 0; } while(0);
  1452  0DC5  1018               	bcf	24,0	;volatile
  1453  0DC6                     l1287:	
  1454                           
  1455                           ;main.c: 76: }
  1456                           ;main.c: 78: if (button_pushed)
  1457  0DC6  0141               	movlb	1	; select bank1
  1458  0DC7  0855               	movf	main@button_pushed^(0+128),w
  1459  0DC8  0456               	iorwf	(main@button_pushed+1)^(0+128),w
  1460  0DC9  1D03               	btfss	3,2
  1461  0DCA  2DE5               	goto	l1309
  1462  0DCB                     L7:	
  1463  0DCB  3187  2FDA         	goto	l1477
  1464  0DCD                     l106:	
  1465                           ;main.c: 81: {
  1466                           ;main.c: 82: case SLEEP:
  1467                           
  1468                           ;main.c: 79: {
  1469                           ;main.c: 80: switch (state)
  1470                           
  1471                           
  1472                           ;main.c: 83: state = ON;
  1473  0DCD  01D7               	clrf	main@state^(0+128)
  1474  0DCE  0AD7               	incf	main@state^(0+128),f
  1475                           
  1476                           ;main.c: 84: break;
  1477  0DCF  2DEF               	goto	l1311
  1478  0DD0                     l1291:	
  1479                           ;main.c: 85: case ON:
  1480                           
  1481                           
  1482                           ;main.c: 86: state = BLINK_SLOW;
  1483  0DD0  3002               	movlw	2
  1484  0DD1  2DDD               	goto	L6
  1485  0DD2                     l1293:	
  1486                           ;main.c: 88: case BLINK_SLOW:
  1487                           
  1488                           ;main.c: 87: break;
  1489                           
  1490                           
  1491                           ;main.c: 89: state = BLINK_FAST;
  1492  0DD2  3003               	movlw	3
  1493  0DD3  2DDD               	goto	L6
  1494  0DD4                     l1295:	
  1495                           ;main.c: 91: case BLINK_FAST:
  1496                           
  1497                           ;main.c: 90: break;
  1498                           
  1499                           
  1500                           ;main.c: 92: state = RUN;
  1501  0DD4  3004               	movlw	4
  1502  0DD5  2DDD               	goto	L6
  1503  0DD6                     l1297:	
  1504                           ;main.c: 94: case RUN:
  1505                           
  1506                           ;main.c: 93: break;
  1507                           
  1508                           
  1509                           ;main.c: 95: state = RANDOM;
  1510  0DD6  3005               	movlw	5
  1511  0DD7  2DDD               	goto	L6
  1512  0DD8                     l1299:	
  1513                           ;main.c: 97: case RANDOM:
  1514                           
  1515                           ;main.c: 96: break;
  1516                           
  1517                           
  1518                           ;main.c: 98: state = RAILROAD;
  1519  0DD8  3006               	movlw	6
  1520  0DD9  2DDD               	goto	L6
  1521  0DDA                     l1301:	
  1522                           ;main.c: 100: case RAILROAD:
  1523                           
  1524                           ;main.c: 99: break;
  1525                           
  1526                           
  1527                           ;main.c: 101: state = TAE;
  1528  0DDA  3007               	movlw	7
  1529  0DDB  2DDD               	goto	L6
  1530  0DDC                     l1303:	
  1531                           ;main.c: 103: case TAE:
  1532                           
  1533                           ;main.c: 102: break;
  1534                           
  1535                           
  1536                           ;main.c: 104: state = RBLINK;
  1537  0DDC  3008               	movlw	8
  1538  0DDD                     L6:	
  1539  0DDD  0140               	movlb	0	; select bank0
  1540  0DDE  00BE               	movwf	??_main
  1541  0DDF  083E               	movf	??_main,w
  1542  0DE0  0141               	movlb	1	; select bank1
  1543  0DE1  00D7               	movwf	main@state^(0+128)
  1544                           
  1545                           ;main.c: 105: break;
  1546  0DE2  2DEF               	goto	l1311
  1547  0DE3                     l1305:	
  1548                           ;main.c: 106: case RBLINK:
  1549                           
  1550                           
  1551                           ;main.c: 107: state = SLEEP;
  1552  0DE3  01D7               	clrf	main@state^(0+128)
  1553                           
  1554                           ;main.c: 109: }
  1555                           
  1556                           ;main.c: 108: break;
  1557  0DE4  2DEF               	goto	l1311
  1558  0DE5                     l1309:	
  1559  0DE5  0857               	movf	main@state^(0+128),w
  1560                           
  1561                           ; Switch size 1, requested type "space"
  1562                           ; Number of cases is 9, Range of values is 0 to 8
  1563                           ; switch strategies available:
  1564                           ; Name         Instructions Cycles
  1565                           ; direct_byte           24     6 (fixed)
  1566                           ; simple_byte           28    15 (average)
  1567                           ; jumptable            260     6 (fixed)
  1568                           ;	Chosen strategy is direct_byte
  1569  0DE6  0084               	movwf	4
  1570  0DE7  3009               	movlw	9
  1571  0DE8  0204               	subwf	4,w
  1572  0DE9  1803               	skipnc
  1573  0DEA  2DEF               	goto	l1311
  1574  0DEB  3180               	movlp	high S1527
  1575  0DEC  3504               	lslf	4,w
  1576  0DED  3E04               	addlw	low S1527
  1577  0DEE  0082               	movwf	2
  1578  0DEF                     l1311:	
  1579                           
  1580                           ;main.c: 110: button_pushed = 0;
  1581  0DEF  01D5               	clrf	main@button_pushed^(0+128)
  1582  0DF0  01D6               	clrf	(main@button_pushed+1)^(0+128)
  1583                           
  1584                           ;main.c: 111: }
  1585                           ;main.c: 113: switch (state)
  1586  0DF1  2DCB               	goto	L7
  1587  0DF2                     l118:	
  1588                           ;main.c: 116: do { LATCbits.LATC3 = 1; } while(0);
  1589                           
  1590                           ;main.c: 114: {
  1591                           ;main.c: 115: case ON:
  1592                           
  1593  0DF2  0140               	movlb	0	; select bank0
  1594  0DF3  159A               	bsf	26,3	;volatile
  1595                           
  1596                           ;main.c: 117: do { LATCbits.LATC2 = 1; } while(0);
  1597  0DF4  151A               	bsf	26,2	;volatile
  1598                           
  1599                           ;main.c: 118: do { LATCbits.LATC1 = 1; } while(0);
  1600  0DF5  149A               	bsf	26,1	;volatile
  1601                           
  1602                           ;main.c: 119: do { LATCbits.LATC0 = 1; } while(0);
  1603  0DF6  141A               	bsf	26,0	;volatile
  1604                           
  1605                           ;main.c: 120: do { LATAbits.LATA2 = 1; } while(0);
  1606  0DF7  1518               	bsf	24,2	;volatile
  1607                           
  1608                           ;main.c: 121: do { LATAbits.LATA1 = 1; } while(0);
  1609  0DF8  1498               	bsf	24,1	;volatile
  1610                           
  1611                           ;main.c: 122: do { LATAbits.LATA0 = 1; } while(0);
  1612  0DF9  1418               	bsf	24,0	;volatile
  1613                           
  1614                           ;main.c: 123: break;
  1615  0DFA  2DA4               	goto	l1279
  1616  0DFB                     l1313:	
  1617                           ;main.c: 125: do { LATCbits.LATC3 = ~LATCbits.LATC3; } while(0);
  1618                           
  1619                           ;main.c: 124: case BLINK_SLOW:
  1620                           
  1621  0DFB  1003               	clrc
  1622  0DFC  0140               	movlb	0	; select bank0
  1623  0DFD  1D9A               	btfss	26,3	;volatile
  1624  0DFE  1403               	setc
  1625  0DFF  1C03               	btfss	3,0
  1626  0E00  2E04               	goto	u1150
  1627  0E01  0140               	movlb	0	; select bank0
  1628  0E02  159A               	bsf	26,3	;volatile
  1629  0E03  2E06               	goto	l136
  1630  0E04                     u1150:	
  1631  0E04  0140               	movlb	0	; select bank0
  1632  0E05  119A               	bcf	26,3	;volatile
  1633  0E06                     l136:	
  1634                           ;main.c: 126: do { LATCbits.LATC2 = ~LATCbits.LATC2; } while(0);
  1635                           
  1636  0E06  1003               	clrc
  1637  0E07  1D1A               	btfss	26,2	;volatile
  1638  0E08  1403               	setc
  1639  0E09  1C03               	btfss	3,0
  1640  0E0A  2E0E               	goto	u1170
  1641  0E0B  0140               	movlb	0	; select bank0
  1642  0E0C  151A               	bsf	26,2	;volatile
  1643  0E0D  2E10               	goto	l138
  1644  0E0E                     u1170:	
  1645  0E0E  0140               	movlb	0	; select bank0
  1646  0E0F  111A               	bcf	26,2	;volatile
  1647  0E10                     l138:	
  1648                           ;main.c: 127: do { LATCbits.LATC1 = ~LATCbits.LATC1; } while(0);
  1649                           
  1650  0E10  1003               	clrc
  1651  0E11  1C9A               	btfss	26,1	;volatile
  1652  0E12  1403               	setc
  1653  0E13  1C03               	btfss	3,0
  1654  0E14  2E18               	goto	u1190
  1655  0E15  0140               	movlb	0	; select bank0
  1656  0E16  149A               	bsf	26,1	;volatile
  1657  0E17  2E1A               	goto	l140
  1658  0E18                     u1190:	
  1659  0E18  0140               	movlb	0	; select bank0
  1660  0E19  109A               	bcf	26,1	;volatile
  1661  0E1A                     l140:	
  1662                           ;main.c: 128: do { LATCbits.LATC0 = ~LATCbits.LATC0; } while(0);
  1663                           
  1664  0E1A  1003               	clrc
  1665  0E1B  1C1A               	btfss	26,0	;volatile
  1666  0E1C  1403               	setc
  1667  0E1D  1C03               	btfss	3,0
  1668  0E1E  2E22               	goto	u1210
  1669  0E1F  0140               	movlb	0	; select bank0
  1670  0E20  141A               	bsf	26,0	;volatile
  1671  0E21  2E24               	goto	l142
  1672  0E22                     u1210:	
  1673  0E22  0140               	movlb	0	; select bank0
  1674  0E23  101A               	bcf	26,0	;volatile
  1675  0E24                     l142:	
  1676                           ;main.c: 129: do { LATAbits.LATA2 = ~LATAbits.LATA2; } while(0);
  1677                           
  1678  0E24  1003               	clrc
  1679  0E25  1D18               	btfss	24,2	;volatile
  1680  0E26  1403               	setc
  1681  0E27  1C03               	btfss	3,0
  1682  0E28  2E2C               	goto	u1230
  1683  0E29  0140               	movlb	0	; select bank0
  1684  0E2A  1518               	bsf	24,2	;volatile
  1685  0E2B  2E2E               	goto	l144
  1686  0E2C                     u1230:	
  1687  0E2C  0140               	movlb	0	; select bank0
  1688  0E2D  1118               	bcf	24,2	;volatile
  1689  0E2E                     l144:	
  1690                           ;main.c: 130: do { LATAbits.LATA1 = ~LATAbits.LATA1; } while(0);
  1691                           
  1692  0E2E  1003               	clrc
  1693  0E2F  1C98               	btfss	24,1	;volatile
  1694  0E30  1403               	setc
  1695  0E31  1C03               	btfss	3,0
  1696  0E32  2E36               	goto	u1250
  1697  0E33  0140               	movlb	0	; select bank0
  1698  0E34  1498               	bsf	24,1	;volatile
  1699  0E35  2E38               	goto	l146
  1700  0E36                     u1250:	
  1701  0E36  0140               	movlb	0	; select bank0
  1702  0E37  1098               	bcf	24,1	;volatile
  1703  0E38                     l146:	
  1704                           ;main.c: 131: do { LATAbits.LATA0 = ~LATAbits.LATA0; } while(0);
  1705                           
  1706  0E38  1003               	clrc
  1707  0E39  1C18               	btfss	24,0	;volatile
  1708  0E3A  1403               	setc
  1709  0E3B  1C03               	btfss	3,0
  1710  0E3C  2E40               	goto	u1270
  1711  0E3D  0140               	movlb	0	; select bank0
  1712  0E3E  1418               	bsf	24,0	;volatile
  1713  0E3F  2E42               	goto	l1315
  1714  0E40                     u1270:	
  1715  0E40  0140               	movlb	0	; select bank0
  1716  0E41  1018               	bcf	24,0	;volatile
  1717  0E42                     l1315:	
  1718                           
  1719                           ;main.c: 132: delay_ms(1000);
  1720  0E42  30E8               	movlw	232
  1721  0E43  00AC               	movwf	delay_ms@milliseconds
  1722  0E44  3003               	movlw	3
  1723  0E45  00AD               	movwf	delay_ms@milliseconds+1
  1724  0E46  3189  21BA  318D   	fcall	_delay_ms
  1725                           
  1726                           ;main.c: 133: break;
  1727  0E49  2DA4               	goto	l1279
  1728  0E4A                     l1317:	
  1729                           ;main.c: 135: do { LATCbits.LATC3 = ~LATCbits.LATC3; } while(0);
  1730                           
  1731                           ;main.c: 134: case BLINK_FAST:
  1732                           
  1733  0E4A  1003               	clrc
  1734  0E4B  0140               	movlb	0	; select bank0
  1735  0E4C  1D9A               	btfss	26,3	;volatile
  1736  0E4D  1403               	setc
  1737  0E4E  1C03               	btfss	3,0
  1738  0E4F  2E53               	goto	u1290
  1739  0E50  0140               	movlb	0	; select bank0
  1740  0E51  159A               	bsf	26,3	;volatile
  1741  0E52  2E55               	goto	l151
  1742  0E53                     u1290:	
  1743  0E53  0140               	movlb	0	; select bank0
  1744  0E54  119A               	bcf	26,3	;volatile
  1745  0E55                     l151:	
  1746                           ;main.c: 136: do { LATCbits.LATC2 = ~LATCbits.LATC2; } while(0);
  1747                           
  1748  0E55  1003               	clrc
  1749  0E56  1D1A               	btfss	26,2	;volatile
  1750  0E57  1403               	setc
  1751  0E58  1C03               	btfss	3,0
  1752  0E59  2E5D               	goto	u1310
  1753  0E5A  0140               	movlb	0	; select bank0
  1754  0E5B  151A               	bsf	26,2	;volatile
  1755  0E5C  2E5F               	goto	l153
  1756  0E5D                     u1310:	
  1757  0E5D  0140               	movlb	0	; select bank0
  1758  0E5E  111A               	bcf	26,2	;volatile
  1759  0E5F                     l153:	
  1760                           ;main.c: 137: do { LATCbits.LATC1 = ~LATCbits.LATC1; } while(0);
  1761                           
  1762  0E5F  1003               	clrc
  1763  0E60  1C9A               	btfss	26,1	;volatile
  1764  0E61  1403               	setc
  1765  0E62  1C03               	btfss	3,0
  1766  0E63  2E67               	goto	u1330
  1767  0E64  0140               	movlb	0	; select bank0
  1768  0E65  149A               	bsf	26,1	;volatile
  1769  0E66  2E69               	goto	l155
  1770  0E67                     u1330:	
  1771  0E67  0140               	movlb	0	; select bank0
  1772  0E68  109A               	bcf	26,1	;volatile
  1773  0E69                     l155:	
  1774                           ;main.c: 138: do { LATCbits.LATC0 = ~LATCbits.LATC0; } while(0);
  1775                           
  1776  0E69  1003               	clrc
  1777  0E6A  1C1A               	btfss	26,0	;volatile
  1778  0E6B  1403               	setc
  1779  0E6C  1C03               	btfss	3,0
  1780  0E6D  2E71               	goto	u1350
  1781  0E6E  0140               	movlb	0	; select bank0
  1782  0E6F  141A               	bsf	26,0	;volatile
  1783  0E70  2E73               	goto	l157
  1784  0E71                     u1350:	
  1785  0E71  0140               	movlb	0	; select bank0
  1786  0E72  101A               	bcf	26,0	;volatile
  1787  0E73                     l157:	
  1788                           ;main.c: 139: do { LATAbits.LATA2 = ~LATAbits.LATA2; } while(0);
  1789                           
  1790  0E73  1003               	clrc
  1791  0E74  1D18               	btfss	24,2	;volatile
  1792  0E75  1403               	setc
  1793  0E76  1C03               	btfss	3,0
  1794  0E77  2E7B               	goto	u1370
  1795  0E78  0140               	movlb	0	; select bank0
  1796  0E79  1518               	bsf	24,2	;volatile
  1797  0E7A  2E7D               	goto	l159
  1798  0E7B                     u1370:	
  1799  0E7B  0140               	movlb	0	; select bank0
  1800  0E7C  1118               	bcf	24,2	;volatile
  1801  0E7D                     l159:	
  1802                           ;main.c: 140: do { LATAbits.LATA1 = ~LATAbits.LATA1; } while(0);
  1803                           
  1804  0E7D  1003               	clrc
  1805  0E7E  1C98               	btfss	24,1	;volatile
  1806  0E7F  1403               	setc
  1807  0E80  1C03               	btfss	3,0
  1808  0E81  2E85               	goto	u1390
  1809  0E82  0140               	movlb	0	; select bank0
  1810  0E83  1498               	bsf	24,1	;volatile
  1811  0E84  2E87               	goto	l161
  1812  0E85                     u1390:	
  1813  0E85  0140               	movlb	0	; select bank0
  1814  0E86  1098               	bcf	24,1	;volatile
  1815  0E87                     l161:	
  1816                           ;main.c: 141: do { LATAbits.LATA0 = ~LATAbits.LATA0; } while(0);
  1817                           
  1818  0E87  1003               	clrc
  1819  0E88  1C18               	btfss	24,0	;volatile
  1820  0E89  1403               	setc
  1821  0E8A  1C03               	btfss	3,0
  1822  0E8B  2E8F               	goto	u1410
  1823  0E8C  0140               	movlb	0	; select bank0
  1824  0E8D  1418               	bsf	24,0	;volatile
  1825  0E8E  2E91               	goto	l1319
  1826  0E8F                     u1410:	
  1827  0E8F  0140               	movlb	0	; select bank0
  1828  0E90  1018               	bcf	24,0	;volatile
  1829  0E91                     l1319:	
  1830                           
  1831                           ;main.c: 142: delay_ms(100);
  1832  0E91  3064               	movlw	100
  1833  0E92  00AC               	movwf	delay_ms@milliseconds
  1834  0E93  3000               	movlw	0
  1835  0E94  00AD               	movwf	delay_ms@milliseconds+1
  1836  0E95  3189  21BA  318D   	fcall	_delay_ms
  1837                           
  1838                           ;main.c: 143: break;
  1839  0E98  2DA4               	goto	l1279
  1840  0E99                     l164:	
  1841                           ;main.c: 145: do { LATCbits.LATC3 = 1; } while(0);
  1842                           
  1843                           ;main.c: 144: case RUN:
  1844                           
  1845  0E99  0140               	movlb	0	; select bank0
  1846  0E9A  159A               	bsf	26,3	;volatile
  1847                           
  1848                           ;main.c: 146: do { LATCbits.LATC2 = 0; } while(0);
  1849  0E9B  111A               	bcf	26,2	;volatile
  1850                           
  1851                           ;main.c: 147: do { LATCbits.LATC1 = 0; } while(0);
  1852  0E9C  109A               	bcf	26,1	;volatile
  1853                           
  1854                           ;main.c: 148: do { LATCbits.LATC0 = 0; } while(0);
  1855  0E9D  101A               	bcf	26,0	;volatile
  1856                           
  1857                           ;main.c: 149: do { LATAbits.LATA2 = 0; } while(0);
  1858  0E9E  1118               	bcf	24,2	;volatile
  1859                           
  1860                           ;main.c: 150: do { LATAbits.LATA1 = 0; } while(0);
  1861  0E9F  1098               	bcf	24,1	;volatile
  1862                           
  1863                           ;main.c: 151: do { LATAbits.LATA0 = 0; } while(0);
  1864  0EA0  1018               	bcf	24,0	;volatile
  1865                           
  1866                           ;main.c: 152: delay_ms(100);
  1867  0EA1  3064               	movlw	100
  1868  0EA2  00AC               	movwf	delay_ms@milliseconds
  1869  0EA3  3000               	movlw	0
  1870  0EA4  00AD               	movwf	delay_ms@milliseconds+1
  1871  0EA5  3189  21BA  318D   	fcall	_delay_ms
  1872                           
  1873                           ;main.c: 153: do { LATCbits.LATC3 = 0; } while(0);
  1874  0EA8  0140               	movlb	0	; select bank0
  1875  0EA9  119A               	bcf	26,3	;volatile
  1876                           
  1877                           ;main.c: 154: do { LATCbits.LATC2 = 1; } while(0);
  1878  0EAA  151A               	bsf	26,2	;volatile
  1879                           
  1880                           ;main.c: 155: do { LATCbits.LATC1 = 0; } while(0);
  1881  0EAB  109A               	bcf	26,1	;volatile
  1882                           
  1883                           ;main.c: 156: do { LATCbits.LATC0 = 0; } while(0);
  1884  0EAC  101A               	bcf	26,0	;volatile
  1885                           
  1886                           ;main.c: 157: do { LATAbits.LATA2 = 0; } while(0);
  1887  0EAD  1118               	bcf	24,2	;volatile
  1888                           
  1889                           ;main.c: 158: do { LATAbits.LATA1 = 0; } while(0);
  1890  0EAE  1098               	bcf	24,1	;volatile
  1891                           
  1892                           ;main.c: 159: do { LATAbits.LATA0 = 0; } while(0);
  1893  0EAF  1018               	bcf	24,0	;volatile
  1894                           
  1895                           ;main.c: 160: delay_ms(100);
  1896  0EB0  3064               	movlw	100
  1897  0EB1  00AC               	movwf	delay_ms@milliseconds
  1898  0EB2  3000               	movlw	0
  1899  0EB3  00AD               	movwf	delay_ms@milliseconds+1
  1900  0EB4  3189  21BA  318D   	fcall	_delay_ms
  1901                           
  1902                           ;main.c: 161: do { LATCbits.LATC3 = 0; } while(0);
  1903  0EB7  0140               	movlb	0	; select bank0
  1904  0EB8  119A               	bcf	26,3	;volatile
  1905                           
  1906                           ;main.c: 162: do { LATCbits.LATC2 = 0; } while(0);
  1907  0EB9  111A               	bcf	26,2	;volatile
  1908                           
  1909                           ;main.c: 163: do { LATCbits.LATC1 = 1; } while(0);
  1910  0EBA  149A               	bsf	26,1	;volatile
  1911                           
  1912                           ;main.c: 164: do { LATCbits.LATC0 = 0; } while(0);
  1913  0EBB  101A               	bcf	26,0	;volatile
  1914                           
  1915                           ;main.c: 165: do { LATAbits.LATA2 = 0; } while(0);
  1916  0EBC  1118               	bcf	24,2	;volatile
  1917                           
  1918                           ;main.c: 166: do { LATAbits.LATA1 = 0; } while(0);
  1919  0EBD  1098               	bcf	24,1	;volatile
  1920                           
  1921                           ;main.c: 167: do { LATAbits.LATA0 = 0; } while(0);
  1922  0EBE  1018               	bcf	24,0	;volatile
  1923                           
  1924                           ;main.c: 168: delay_ms(100);
  1925  0EBF  3064               	movlw	100
  1926  0EC0  00AC               	movwf	delay_ms@milliseconds
  1927  0EC1  3000               	movlw	0
  1928  0EC2  00AD               	movwf	delay_ms@milliseconds+1
  1929  0EC3  3189  21BA  318D   	fcall	_delay_ms
  1930                           
  1931                           ;main.c: 169: do { LATCbits.LATC3 = 0; } while(0);
  1932  0EC6  0140               	movlb	0	; select bank0
  1933  0EC7  119A               	bcf	26,3	;volatile
  1934                           
  1935                           ;main.c: 170: do { LATCbits.LATC2 = 0; } while(0);
  1936  0EC8  111A               	bcf	26,2	;volatile
  1937                           
  1938                           ;main.c: 171: do { LATCbits.LATC1 = 0; } while(0);
  1939  0EC9  109A               	bcf	26,1	;volatile
  1940                           
  1941                           ;main.c: 172: do { LATCbits.LATC0 = 1; } while(0);
  1942  0ECA  141A               	bsf	26,0	;volatile
  1943                           
  1944                           ;main.c: 173: do { LATAbits.LATA2 = 0; } while(0);
  1945  0ECB  1118               	bcf	24,2	;volatile
  1946                           
  1947                           ;main.c: 174: do { LATAbits.LATA1 = 0; } while(0);
  1948  0ECC  1098               	bcf	24,1	;volatile
  1949                           
  1950                           ;main.c: 175: do { LATAbits.LATA0 = 0; } while(0);
  1951  0ECD  1018               	bcf	24,0	;volatile
  1952                           
  1953                           ;main.c: 176: delay_ms(100);
  1954  0ECE  3064               	movlw	100
  1955  0ECF  00AC               	movwf	delay_ms@milliseconds
  1956  0ED0  3000               	movlw	0
  1957  0ED1  00AD               	movwf	delay_ms@milliseconds+1
  1958  0ED2  3189  21BA  318D   	fcall	_delay_ms
  1959                           
  1960                           ;main.c: 177: do { LATCbits.LATC3 = 0; } while(0);
  1961  0ED5  0140               	movlb	0	; select bank0
  1962  0ED6  119A               	bcf	26,3	;volatile
  1963                           
  1964                           ;main.c: 178: do { LATCbits.LATC2 = 0; } while(0);
  1965  0ED7  111A               	bcf	26,2	;volatile
  1966                           
  1967                           ;main.c: 179: do { LATCbits.LATC1 = 0; } while(0);
  1968  0ED8  109A               	bcf	26,1	;volatile
  1969                           
  1970                           ;main.c: 180: do { LATCbits.LATC0 = 0; } while(0);
  1971  0ED9  101A               	bcf	26,0	;volatile
  1972                           
  1973                           ;main.c: 181: do { LATAbits.LATA2 = 1; } while(0);
  1974  0EDA  1518               	bsf	24,2	;volatile
  1975                           
  1976                           ;main.c: 182: do { LATAbits.LATA1 = 0; } while(0);
  1977  0EDB  1098               	bcf	24,1	;volatile
  1978                           
  1979                           ;main.c: 183: do { LATAbits.LATA0 = 0; } while(0);
  1980  0EDC  1018               	bcf	24,0	;volatile
  1981                           
  1982                           ;main.c: 184: delay_ms(100);
  1983  0EDD  3064               	movlw	100
  1984  0EDE  00AC               	movwf	delay_ms@milliseconds
  1985  0EDF  3000               	movlw	0
  1986  0EE0  00AD               	movwf	delay_ms@milliseconds+1
  1987  0EE1  3189  21BA  318D   	fcall	_delay_ms
  1988                           
  1989                           ;main.c: 185: do { LATCbits.LATC3 = 0; } while(0);
  1990  0EE4  0140               	movlb	0	; select bank0
  1991  0EE5  119A               	bcf	26,3	;volatile
  1992                           
  1993                           ;main.c: 186: do { LATCbits.LATC2 = 0; } while(0);
  1994  0EE6  111A               	bcf	26,2	;volatile
  1995                           
  1996                           ;main.c: 187: do { LATCbits.LATC1 = 0; } while(0);
  1997  0EE7  109A               	bcf	26,1	;volatile
  1998                           
  1999                           ;main.c: 188: do { LATCbits.LATC0 = 0; } while(0);
  2000  0EE8  101A               	bcf	26,0	;volatile
  2001                           
  2002                           ;main.c: 189: do { LATAbits.LATA2 = 0; } while(0);
  2003  0EE9  1118               	bcf	24,2	;volatile
  2004                           
  2005                           ;main.c: 190: do { LATAbits.LATA1 = 1; } while(0);
  2006  0EEA  1498               	bsf	24,1	;volatile
  2007                           
  2008                           ;main.c: 191: do { LATAbits.LATA0 = 0; } while(0);
  2009  0EEB  1018               	bcf	24,0	;volatile
  2010                           
  2011                           ;main.c: 192: delay_ms(100);
  2012  0EEC  3064               	movlw	100
  2013  0EED  00AC               	movwf	delay_ms@milliseconds
  2014  0EEE  3000               	movlw	0
  2015  0EEF  00AD               	movwf	delay_ms@milliseconds+1
  2016  0EF0  3189  21BA  318D   	fcall	_delay_ms
  2017                           
  2018                           ;main.c: 193: do { LATCbits.LATC3 = 0; } while(0);
  2019  0EF3  0140               	movlb	0	; select bank0
  2020  0EF4  119A               	bcf	26,3	;volatile
  2021                           
  2022                           ;main.c: 194: do { LATCbits.LATC2 = 0; } while(0);
  2023  0EF5  111A               	bcf	26,2	;volatile
  2024                           
  2025                           ;main.c: 195: do { LATCbits.LATC1 = 0; } while(0);
  2026  0EF6  109A               	bcf	26,1	;volatile
  2027                           
  2028                           ;main.c: 196: do { LATCbits.LATC0 = 0; } while(0);
  2029  0EF7  101A               	bcf	26,0	;volatile
  2030                           
  2031                           ;main.c: 197: do { LATAbits.LATA2 = 0; } while(0);
  2032  0EF8  1118               	bcf	24,2	;volatile
  2033                           
  2034                           ;main.c: 198: do { LATAbits.LATA1 = 0; } while(0);
  2035  0EF9  1098               	bcf	24,1	;volatile
  2036                           
  2037                           ;main.c: 199: do { LATAbits.LATA0 = 1; } while(0);
  2038  0EFA  1418               	bsf	24,0	;volatile
  2039                           
  2040                           ;main.c: 200: delay_ms(100);
  2041  0EFB  3064               	movlw	100
  2042  0EFC  00AC               	movwf	delay_ms@milliseconds
  2043  0EFD  3000               	movlw	0
  2044  0EFE  00AD               	movwf	delay_ms@milliseconds+1
  2045  0EFF  3189  21BA  318D   	fcall	_delay_ms
  2046                           
  2047                           ;main.c: 201: break;
  2048  0F02  2DA4               	goto	l1279
  2049  0F03                     l1407:	
  2050                           ;main.c: 203: do { LATCbits.LATC3 = ~LATCbits.LATC3; } while(0);
  2051                           
  2052                           ;main.c: 202: case RANDOM:
  2053                           
  2054  0F03  1003               	clrc
  2055  0F04  0140               	movlb	0	; select bank0
  2056  0F05  1D9A               	btfss	26,3	;volatile
  2057  0F06  1403               	setc
  2058  0F07  1C03               	btfss	3,0
  2059  0F08  2F0C               	goto	u1430
  2060  0F09  0140               	movlb	0	; select bank0
  2061  0F0A  159A               	bsf	26,3	;volatile
  2062  0F0B  2F0E               	goto	l1409
  2063  0F0C                     u1430:	
  2064  0F0C  0140               	movlb	0	; select bank0
  2065  0F0D  119A               	bcf	26,3	;volatile
  2066  0F0E                     l1409:	
  2067                           
  2068                           ;main.c: 204: delay_ms(5+ (rand() % 300));
  2069  0F0E  302C               	movlw	44
  2070  0F0F  00A5               	movwf	___awmod@divisor
  2071  0F10  3001               	movlw	1
  2072  0F11  00A6               	movwf	___awmod@divisor+1
  2073  0F12  318A  2278  318D   	fcall	_rand
  2074  0F15  087D               	movf	?_rand+1,w
  2075  0F16  0140               	movlb	0	; select bank0
  2076  0F17  00A8               	movwf	___awmod@dividend+1
  2077  0F18  087C               	movf	?_rand,w
  2078  0F19  00A7               	movwf	___awmod@dividend
  2079  0F1A  3180  201E  318D   	fcall	___awmod
  2080  0F1D  0140               	movlb	0	; select bank0
  2081  0F1E  0825               	movf	?___awmod,w
  2082  0F1F  3E05               	addlw	5
  2083  0F20  00AC               	movwf	delay_ms@milliseconds
  2084  0F21  3000               	movlw	0
  2085  0F22  3D26               	addwfc	?___awmod+1,w
  2086  0F23  00AD               	movwf	delay_ms@milliseconds+1
  2087  0F24  3189  21BA  318D   	fcall	_delay_ms
  2088                           
  2089                           ;main.c: 205: do { LATCbits.LATC2 = ~LATCbits.LATC2; } while(0);
  2090  0F27  1003               	clrc
  2091  0F28  0140               	movlb	0	; select bank0
  2092  0F29  1D1A               	btfss	26,2	;volatile
  2093  0F2A  1403               	setc
  2094  0F2B  1C03               	btfss	3,0
  2095  0F2C  2F30               	goto	u1450
  2096  0F2D  0140               	movlb	0	; select bank0
  2097  0F2E  151A               	bsf	26,2	;volatile
  2098  0F2F  2F32               	goto	l266
  2099  0F30                     u1450:	
  2100  0F30  0140               	movlb	0	; select bank0
  2101  0F31  111A               	bcf	26,2	;volatile
  2102  0F32                     l266:	
  2103                           
  2104                           ;main.c: 206: delay_ms(5+ (rand() % 300));
  2105  0F32  302C               	movlw	44
  2106  0F33  00A5               	movwf	___awmod@divisor
  2107  0F34  3001               	movlw	1
  2108  0F35  00A6               	movwf	___awmod@divisor+1
  2109  0F36  318A  2278  318D   	fcall	_rand
  2110  0F39  087D               	movf	?_rand+1,w
  2111  0F3A  0140               	movlb	0	; select bank0
  2112  0F3B  00A8               	movwf	___awmod@dividend+1
  2113  0F3C  087C               	movf	?_rand,w
  2114  0F3D  00A7               	movwf	___awmod@dividend
  2115  0F3E  3180  201E  318D   	fcall	___awmod
  2116  0F41  0140               	movlb	0	; select bank0
  2117  0F42  0825               	movf	?___awmod,w
  2118  0F43  3E05               	addlw	5
  2119  0F44  00AC               	movwf	delay_ms@milliseconds
  2120  0F45  3000               	movlw	0
  2121  0F46  3D26               	addwfc	?___awmod+1,w
  2122  0F47  00AD               	movwf	delay_ms@milliseconds+1
  2123  0F48  3189  21BA  318D   	fcall	_delay_ms
  2124                           
  2125                           ;main.c: 207: do { LATCbits.LATC1 = ~LATCbits.LATC1; } while(0);
  2126  0F4B  1003               	clrc
  2127  0F4C  0140               	movlb	0	; select bank0
  2128  0F4D  1C9A               	btfss	26,1	;volatile
  2129  0F4E  1403               	setc
  2130  0F4F  1C03               	btfss	3,0
  2131  0F50  2F54               	goto	u1470
  2132  0F51  0140               	movlb	0	; select bank0
  2133  0F52  149A               	bsf	26,1	;volatile
  2134  0F53  2F56               	goto	l1415
  2135  0F54                     u1470:	
  2136  0F54  0140               	movlb	0	; select bank0
  2137  0F55  109A               	bcf	26,1	;volatile
  2138  0F56                     l1415:	
  2139                           
  2140                           ;main.c: 208: delay_ms(5+ (rand() % 300));
  2141  0F56  302C               	movlw	44
  2142  0F57  00A5               	movwf	___awmod@divisor
  2143  0F58  3001               	movlw	1
  2144  0F59  00A6               	movwf	___awmod@divisor+1
  2145  0F5A  318A  2278  318D   	fcall	_rand
  2146  0F5D  087D               	movf	?_rand+1,w
  2147  0F5E  0140               	movlb	0	; select bank0
  2148  0F5F  00A8               	movwf	___awmod@dividend+1
  2149  0F60  087C               	movf	?_rand,w
  2150  0F61  00A7               	movwf	___awmod@dividend
  2151  0F62  3180  201E  318D   	fcall	___awmod
  2152  0F65  0140               	movlb	0	; select bank0
  2153  0F66  0825               	movf	?___awmod,w
  2154  0F67  3E05               	addlw	5
  2155  0F68  00AC               	movwf	delay_ms@milliseconds
  2156  0F69  3000               	movlw	0
  2157  0F6A  3D26               	addwfc	?___awmod+1,w
  2158  0F6B  00AD               	movwf	delay_ms@milliseconds+1
  2159  0F6C  3189  21BA  318D   	fcall	_delay_ms
  2160                           
  2161                           ;main.c: 209: do { LATCbits.LATC0 = ~LATCbits.LATC0; } while(0);
  2162  0F6F  1003               	clrc
  2163  0F70  0140               	movlb	0	; select bank0
  2164  0F71  1C1A               	btfss	26,0	;volatile
  2165  0F72  1403               	setc
  2166  0F73  1C03               	btfss	3,0
  2167  0F74  2F78               	goto	u1490
  2168  0F75  0140               	movlb	0	; select bank0
  2169  0F76  141A               	bsf	26,0	;volatile
  2170  0F77  2F7A               	goto	l1417
  2171  0F78                     u1490:	
  2172  0F78  0140               	movlb	0	; select bank0
  2173  0F79  101A               	bcf	26,0	;volatile
  2174  0F7A                     l1417:	
  2175                           
  2176                           ;main.c: 210: delay_ms(5+ (rand() % 300));
  2177  0F7A  302C               	movlw	44
  2178  0F7B  00A5               	movwf	___awmod@divisor
  2179  0F7C  3001               	movlw	1
  2180  0F7D  00A6               	movwf	___awmod@divisor+1
  2181  0F7E  318A  2278  318D   	fcall	_rand
  2182  0F81  087D               	movf	?_rand+1,w
  2183  0F82  0140               	movlb	0	; select bank0
  2184  0F83  00A8               	movwf	___awmod@dividend+1
  2185  0F84  087C               	movf	?_rand,w
  2186  0F85  00A7               	movwf	___awmod@dividend
  2187  0F86  3180  201E  318D   	fcall	___awmod
  2188  0F89  0140               	movlb	0	; select bank0
  2189  0F8A  0825               	movf	?___awmod,w
  2190  0F8B  3E05               	addlw	5
  2191  0F8C  00AC               	movwf	delay_ms@milliseconds
  2192  0F8D  3000               	movlw	0
  2193  0F8E  3D26               	addwfc	?___awmod+1,w
  2194  0F8F  00AD               	movwf	delay_ms@milliseconds+1
  2195  0F90  3189  21BA  318D   	fcall	_delay_ms
  2196                           
  2197                           ;main.c: 211: do { LATAbits.LATA2 = ~LATAbits.LATA2; } while(0);
  2198  0F93  1003               	clrc
  2199  0F94  0140               	movlb	0	; select bank0
  2200  0F95  1D18               	btfss	24,2	;volatile
  2201  0F96  1403               	setc
  2202  0F97  1C03               	btfss	3,0
  2203  0F98  2F9C               	goto	u1510
  2204  0F99  0140               	movlb	0	; select bank0
  2205  0F9A  1518               	bsf	24,2	;volatile
  2206  0F9B  2F9E               	goto	l272
  2207  0F9C                     u1510:	
  2208  0F9C  0140               	movlb	0	; select bank0
  2209  0F9D  1118               	bcf	24,2	;volatile
  2210  0F9E                     l272:	
  2211                           
  2212                           ;main.c: 212: delay_ms(5+ (rand() % 300));
  2213  0F9E  302C               	movlw	44
  2214  0F9F  00A5               	movwf	___awmod@divisor
  2215  0FA0  3001               	movlw	1
  2216  0FA1  00A6               	movwf	___awmod@divisor+1
  2217  0FA2  318A  2278  318D   	fcall	_rand
  2218  0FA5  087D               	movf	?_rand+1,w
  2219  0FA6  0140               	movlb	0	; select bank0
  2220  0FA7  00A8               	movwf	___awmod@dividend+1
  2221  0FA8  087C               	movf	?_rand,w
  2222  0FA9  00A7               	movwf	___awmod@dividend
  2223  0FAA  3180  201E  318D   	fcall	___awmod
  2224  0FAD  0140               	movlb	0	; select bank0
  2225  0FAE  0825               	movf	?___awmod,w
  2226  0FAF  3E05               	addlw	5
  2227  0FB0  00AC               	movwf	delay_ms@milliseconds
  2228  0FB1  3000               	movlw	0
  2229  0FB2  3D26               	addwfc	?___awmod+1,w
  2230  0FB3  00AD               	movwf	delay_ms@milliseconds+1
  2231  0FB4  3189  21BA  318D   	fcall	_delay_ms
  2232                           
  2233                           ;main.c: 213: do { LATAbits.LATA1 = ~LATAbits.LATA1; } while(0);
  2234  0FB7  1003               	clrc
  2235  0FB8  0140               	movlb	0	; select bank0
  2236  0FB9  1C98               	btfss	24,1	;volatile
  2237  0FBA  1403               	setc
  2238  0FBB  1C03               	btfss	3,0
  2239  0FBC  2FC0               	goto	u1530
  2240  0FBD  0140               	movlb	0	; select bank0
  2241  0FBE  1498               	bsf	24,1	;volatile
  2242  0FBF  2FC2               	goto	l1423
  2243  0FC0                     u1530:	
  2244  0FC0  0140               	movlb	0	; select bank0
  2245  0FC1  1098               	bcf	24,1	;volatile
  2246  0FC2                     l1423:	
  2247                           
  2248                           ;main.c: 214: delay_ms(5+ (rand() % 300));
  2249  0FC2  302C               	movlw	44
  2250  0FC3  00A5               	movwf	___awmod@divisor
  2251  0FC4  3001               	movlw	1
  2252  0FC5  00A6               	movwf	___awmod@divisor+1
  2253  0FC6  318A  2278  318D   	fcall	_rand
  2254  0FC9  087D               	movf	?_rand+1,w
  2255  0FCA  0140               	movlb	0	; select bank0
  2256  0FCB  00A8               	movwf	___awmod@dividend+1
  2257  0FCC  087C               	movf	?_rand,w
  2258  0FCD  00A7               	movwf	___awmod@dividend
  2259  0FCE  3180  201E  318D   	fcall	___awmod
  2260  0FD1  0140               	movlb	0	; select bank0
  2261  0FD2  0825               	movf	?___awmod,w
  2262  0FD3  3E05               	addlw	5
  2263  0FD4  00AC               	movwf	delay_ms@milliseconds
  2264  0FD5  3000               	movlw	0
  2265  0FD6  3D26               	addwfc	?___awmod+1,w
  2266  0FD7  00AD               	movwf	delay_ms@milliseconds+1
  2267  0FD8  3189  21BA  318D   	fcall	_delay_ms
  2268                           
  2269                           ;main.c: 215: do { LATAbits.LATA0 = ~LATAbits.LATA0; } while(0);
  2270  0FDB  1003               	clrc
  2271  0FDC  0140               	movlb	0	; select bank0
  2272  0FDD  1C18               	btfss	24,0	;volatile
  2273  0FDE  1403               	setc
  2274  0FDF  1C03               	btfss	3,0
  2275  0FE0  2FE4               	goto	u1550
  2276  0FE1  0140               	movlb	0	; select bank0
  2277  0FE2  1418               	bsf	24,0	;volatile
  2278  0FE3  2FE6               	goto	l1425
  2279  0FE4                     u1550:	
  2280  0FE4  0140               	movlb	0	; select bank0
  2281  0FE5  1018               	bcf	24,0	;volatile
  2282  0FE6                     l1425:	
  2283                           
  2284                           ;main.c: 216: delay_ms(5+ (rand() % 300));
  2285  0FE6  302C               	movlw	44
  2286  0FE7  00A5               	movwf	___awmod@divisor
  2287  0FE8  3001               	movlw	1
  2288  0FE9  00A6               	movwf	___awmod@divisor+1
  2289  0FEA  318A  2278  318D   	fcall	_rand
  2290  0FED  087D               	movf	?_rand+1,w
  2291  0FEE  0140               	movlb	0	; select bank0
  2292  0FEF  00A8               	movwf	___awmod@dividend+1
  2293  0FF0  087C               	movf	?_rand,w
  2294  0FF1  00A7               	movwf	___awmod@dividend
  2295  0FF2  3180  201E  318D   	fcall	___awmod
  2296  0FF5  0140               	movlb	0	; select bank0
  2297  0FF6  0825               	movf	?___awmod,w
  2298  0FF7  3E05               	addlw	5
  2299  0FF8  00AC               	movwf	delay_ms@milliseconds
  2300  0FF9  3000               	movlw	0
  2301  0FFA  3D26               	addwfc	?___awmod+1,w
  2302  0FFB  00AD               	movwf	delay_ms@milliseconds+1
  2303  0FFC  3189  21BA  318D   	fcall	_delay_ms
  2304                           
  2305                           ;main.c: 217: break;
  2306  0FFF  2DA4               	goto	l1279
  2307                           
  2308                           	psect	swtext1
  2309  0004                     __pswtext1:	
  2310  0004                     S1527:	
  2311  0004  318D  2DCD         	ljmp	l106
  2312  0006  318D  2DD0         	ljmp	l1291
  2313  0008  318D  2DD2         	ljmp	l1293
  2314  000A  318D  2DD4         	ljmp	l1295
  2315  000C  318D  2DD6         	ljmp	l1297
  2316  000E  318D  2DD8         	ljmp	l1299
  2317  0010  318D  2DDA         	ljmp	l1301
  2318  0012  318D  2DDC         	ljmp	l1303
  2319  0014  318D  2DE3         	ljmp	l1305
  2320                           
  2321                           	psect	swtext2
  2322  0800                     __pswtext2:	
  2323  0800                     S1529:	
  2324  0800  3187  2FD1         	ljmp	l335
  2325  0802  318D  2DF2         	ljmp	l118
  2326  0804  318D  2DFB         	ljmp	l1313
  2327  0806  318E  2E4A         	ljmp	l1317
  2328  0808  318E  2E99         	ljmp	l164
  2329  080A  318F  2F03         	ljmp	l1407
  2330  080C  318B  2B42         	ljmp	l278
  2331  080E  318B  2B62         	ljmp	l1443
  2332  0810  3187  2F39         	ljmp	l1445
  2333                           
  2334                           	psect	text1
  2335  0A78                     __ptext1:	
  2336 ;; *************** function _rand *****************
  2337 ;; Defined at:
  2338 ;;		line 12 in file "/Applications/microchip/xc8/v1.42/sources/common/rand.c"
  2339 ;; Parameters:    Size  Location     Type
  2340 ;;		None
  2341 ;; Auto vars:     Size  Location     Type
  2342 ;;		None
  2343 ;; Return value:  Size  Location     Type
  2344 ;;                  2   12[COMMON] int 
  2345 ;; Registers used:
  2346 ;;		wreg, status,2, status,0, pclath, cstack
  2347 ;; Tracked objects:
  2348 ;;		On entry : 0/0
  2349 ;;		On exit  : 0/0
  2350 ;;		Unchanged: 0/0
  2351 ;; Data sizes:     COMMON   BANK0   BANK1   BANK2   BANK3   BANK4   BANK5   BANK6   BANK7   BANK8   BANK9  BANK10  BANK1
      +1  BANK12
  2352 ;;      Params:         2       0       0       0       0       0       0       0       0       0       0       0       
      +0       0
  2353 ;;      Locals:         0       0       0       0       0       0       0       0       0       0       0       0       
      +0       0
  2354 ;;      Temps:          0       5       0       0       0       0       0       0       0       0       0       0       
      +0       0
  2355 ;;      Totals:         2       5       0       0       0       0       0       0       0       0       0       0       
      +0       0
  2356 ;;Total ram usage:        7 bytes
  2357 ;; Hardware stack levels used:    1
  2358 ;; Hardware stack levels required when called:    1
  2359 ;; This function calls:
  2360 ;;		___lmul
  2361 ;; This function is called by:
  2362 ;;		_main
  2363 ;; This function uses a non-reentrant model
  2364 ;;
  2365                           
  2366                           
  2367                           ;psect for function _rand
  2368  0A78                     _rand:	
  2369                           
  2370                           ;incstack = 0
  2371                           ; Regs used in _rand: [wreg+status,2+status,0+pclath+cstack]
  2372  0A78  0140               	movlb	0	; select bank0
  2373  0A79  0842               	movf	_randx+3,w
  2374  0A7A  00F3               	movwf	___lmul@multiplier+3
  2375  0A7B  0841               	movf	_randx+2,w
  2376  0A7C  00F2               	movwf	___lmul@multiplier+2
  2377  0A7D  0840               	movf	_randx+1,w
  2378  0A7E  00F1               	movwf	___lmul@multiplier+1
  2379  0A7F  083F               	movf	_randx,w
  2380  0A80  00F0               	movwf	___lmul@multiplier
  2381  0A81  3041               	movlw	65
  2382  0A82  00F7               	movwf	___lmul@multiplicand+3
  2383  0A83  30C6               	movlw	198
  2384  0A84  00F6               	movwf	___lmul@multiplicand+2
  2385  0A85  304E               	movlw	78
  2386  0A86  00F5               	movwf	___lmul@multiplicand+1
  2387  0A87  306D               	movlw	109
  2388  0A88  00F4               	movwf	___lmul@multiplicand
  2389  0A89  3189  21DB  318A   	fcall	___lmul
  2390  0A8C  0873               	movf	?___lmul+3,w
  2391  0A8D  0140               	movlb	0	; select bank0
  2392  0A8E  00C2               	movwf	_randx+3
  2393  0A8F  0872               	movf	?___lmul+2,w
  2394  0A90  00C1               	movwf	_randx+2
  2395  0A91  0871               	movf	?___lmul+1,w
  2396  0A92  00C0               	movwf	_randx+1
  2397  0A93  0870               	movf	?___lmul,w
  2398  0A94  00BF               	movwf	_randx
  2399  0A95  3039               	movlw	57
  2400  0A96  07BF               	addwf	_randx,f
  2401  0A97  3030               	movlw	48
  2402  0A98  3DC0               	addwfc	_randx+1,f
  2403  0A99  3000               	movlw	0
  2404  0A9A  3DC1               	addwfc	_randx+2,f
  2405  0A9B  3000               	movlw	0
  2406  0A9C  3DC2               	addwfc	_randx+3,f
  2407  0A9D  083F               	movf	_randx,w
  2408  0A9E  00A0               	movwf	??_rand
  2409  0A9F  0840               	movf	_randx+1,w
  2410  0AA0  00A1               	movwf	??_rand+1
  2411  0AA1  0841               	movf	_randx+2,w
  2412  0AA2  00A2               	movwf	??_rand+2
  2413  0AA3  0842               	movf	_randx+3,w
  2414  0AA4  00A3               	movwf	??_rand+3
  2415  0AA5  3010               	movlw	16
  2416  0AA6  00A4               	movwf	??_rand+4
  2417  0AA7                     u945:	
  2418  0AA7  37A3               	asrf	??_rand+3,f
  2419  0AA8  0CA2               	rrf	??_rand+2,f
  2420  0AA9  0CA1               	rrf	??_rand+1,f
  2421  0AAA  0CA0               	rrf	??_rand,f
  2422  0AAB  0BA4               	decfsz	??_rand+4,f
  2423  0AAC  2AA7               	goto	u945
  2424  0AAD  30FF               	movlw	255
  2425  0AAE  0520               	andwf	??_rand,w
  2426  0AAF  00FC               	movwf	?_rand
  2427  0AB0  307F               	movlw	127
  2428  0AB1  0521               	andwf	??_rand+1,w
  2429  0AB2  00FD               	movwf	?_rand+1
  2430  0AB3  0008               	return
  2431  0AB4                     __end_of_rand:	
  2432                           
  2433                           	psect	text2
  2434  09DB                     __ptext2:	
  2435 ;; *************** function ___lmul *****************
  2436 ;; Defined at:
  2437 ;;		line 15 in file "/Applications/microchip/xc8/v1.42/sources/common/Umul32.c"
  2438 ;; Parameters:    Size  Location     Type
  2439 ;;  multiplier      4    0[COMMON] unsigned long 
  2440 ;;  multiplicand    4    4[COMMON] unsigned long 
  2441 ;; Auto vars:     Size  Location     Type
  2442 ;;  product         4    8[COMMON] unsigned long 
  2443 ;; Return value:  Size  Location     Type
  2444 ;;                  4    0[COMMON] unsigned long 
  2445 ;; Registers used:
  2446 ;;		wreg, status,2, status,0
  2447 ;; Tracked objects:
  2448 ;;		On entry : 0/0
  2449 ;;		On exit  : 0/0
  2450 ;;		Unchanged: 0/0
  2451 ;; Data sizes:     COMMON   BANK0   BANK1   BANK2   BANK3   BANK4   BANK5   BANK6   BANK7   BANK8   BANK9  BANK10  BANK1
      +1  BANK12
  2452 ;;      Params:         8       0       0       0       0       0       0       0       0       0       0       0       
      +0       0
  2453 ;;      Locals:         4       0       0       0       0       0       0       0       0       0       0       0       
      +0       0
  2454 ;;      Temps:          0       0       0       0       0       0       0       0       0       0       0       0       
      +0       0
  2455 ;;      Totals:        12       0       0       0       0       0       0       0       0       0       0       0       
      +0       0
  2456 ;;Total ram usage:       12 bytes
  2457 ;; Hardware stack levels used:    1
  2458 ;; This function calls:
  2459 ;;		Nothing
  2460 ;; This function is called by:
  2461 ;;		_rand
  2462 ;; This function uses a non-reentrant model
  2463 ;;
  2464                           
  2465                           
  2466                           ;psect for function ___lmul
  2467  09DB                     ___lmul:	
  2468                           
  2469                           ;incstack = 0
  2470                           ; Regs used in ___lmul: [wreg+status,2+status,0]
  2471  09DB  3000               	movlw	0
  2472  09DC  00FB               	movwf	___lmul@product+3
  2473  09DD  3000               	movlw	0
  2474  09DE  00FA               	movwf	___lmul@product+2
  2475  09DF  3000               	movlw	0
  2476  09E0  00F9               	movwf	___lmul@product+1
  2477  09E1  3000               	movlw	0
  2478  09E2  00F8               	movwf	___lmul@product
  2479  09E3                     l1191:	
  2480  09E3  1C70               	btfss	___lmul@multiplier,0
  2481  09E4  29ED               	goto	l1195
  2482  09E5  0874               	movf	___lmul@multiplicand,w
  2483  09E6  07F8               	addwf	___lmul@product,f
  2484  09E7  0875               	movf	___lmul@multiplicand+1,w
  2485  09E8  3DF9               	addwfc	___lmul@product+1,f
  2486  09E9  0876               	movf	___lmul@multiplicand+2,w
  2487  09EA  3DFA               	addwfc	___lmul@product+2,f
  2488  09EB  0877               	movf	___lmul@multiplicand+3,w
  2489  09EC  3DFB               	addwfc	___lmul@product+3,f
  2490  09ED                     l1195:	
  2491  09ED  3001               	movlw	1
  2492  09EE                     u915:	
  2493  09EE  35F4               	lslf	___lmul@multiplicand,f
  2494  09EF  0DF5               	rlf	___lmul@multiplicand+1,f
  2495  09F0  0DF6               	rlf	___lmul@multiplicand+2,f
  2496  09F1  0DF7               	rlf	___lmul@multiplicand+3,f
  2497  09F2  0B89               	decfsz	9,f
  2498  09F3  29EE               	goto	u915
  2499  09F4  3001               	movlw	1
  2500  09F5                     u925:	
  2501  09F5  36F3               	lsrf	___lmul@multiplier+3,f
  2502  09F6  0CF2               	rrf	___lmul@multiplier+2,f
  2503  09F7  0CF1               	rrf	___lmul@multiplier+1,f
  2504  09F8  0CF0               	rrf	___lmul@multiplier,f
  2505  09F9  0B89               	decfsz	9,f
  2506  09FA  29F5               	goto	u925
  2507  09FB  0873               	movf	___lmul@multiplier+3,w
  2508  09FC  0472               	iorwf	___lmul@multiplier+2,w
  2509  09FD  0471               	iorwf	___lmul@multiplier+1,w
  2510  09FE  0470               	iorwf	___lmul@multiplier,w
  2511  09FF  1D03               	skipz
  2512  0A00  29E3               	goto	l1191
  2513  0A01  087B               	movf	___lmul@product+3,w
  2514  0A02  00F3               	movwf	?___lmul+3
  2515  0A03  087A               	movf	___lmul@product+2,w
  2516  0A04  00F2               	movwf	?___lmul+2
  2517  0A05  0879               	movf	___lmul@product+1,w
  2518  0A06  00F1               	movwf	?___lmul+1
  2519  0A07  0878               	movf	___lmul@product,w
  2520  0A08  00F0               	movwf	?___lmul
  2521  0A09  0008               	return
  2522  0A0A                     __end_of___lmul:	
  2523                           
  2524                           	psect	text3
  2525  0A3F                     __ptext3:	
  2526 ;; *************** function _light *****************
  2527 ;; Defined at:
  2528 ;;		line 354 in file "main.c"
  2529 ;; Parameters:    Size  Location     Type
  2530 ;;  l7              2   14[BANK0 ] int 
  2531 ;;  l6              2   16[BANK0 ] int 
  2532 ;;  l5              2   18[BANK0 ] int 
  2533 ;;  l4              2   20[BANK0 ] int 
  2534 ;;  l3              2   22[BANK0 ] int 
  2535 ;;  l2              2   24[BANK0 ] int 
  2536 ;;  l1              2   26[BANK0 ] int 
  2537 ;;  d               2   28[BANK0 ] unsigned int 
  2538 ;; Auto vars:     Size  Location     Type
  2539 ;;		None
  2540 ;; Return value:  Size  Location     Type
  2541 ;;                  1    wreg      void 
  2542 ;; Registers used:
  2543 ;;		wreg, status,2, status,0, pclath, cstack
  2544 ;; Tracked objects:
  2545 ;;		On entry : 0/0
  2546 ;;		On exit  : 0/0
  2547 ;;		Unchanged: 0/0
  2548 ;; Data sizes:     COMMON   BANK0   BANK1   BANK2   BANK3   BANK4   BANK5   BANK6   BANK7   BANK8   BANK9  BANK10  BANK1
      +1  BANK12
  2549 ;;      Params:         0      16       0       0       0       0       0       0       0       0       0       0       
      +0       0
  2550 ;;      Locals:         0       0       0       0       0       0       0       0       0       0       0       0       
      +0       0
  2551 ;;      Temps:          0       0       0       0       0       0       0       0       0       0       0       0       
      +0       0
  2552 ;;      Totals:         0      16       0       0       0       0       0       0       0       0       0       0       
      +0       0
  2553 ;;Total ram usage:       16 bytes
  2554 ;; Hardware stack levels used:    1
  2555 ;; Hardware stack levels required when called:    1
  2556 ;; This function calls:
  2557 ;;		_delay_ms
  2558 ;; This function is called by:
  2559 ;;		_main
  2560 ;; This function uses a non-reentrant model
  2561 ;;
  2562                           
  2563                           
  2564                           ;psect for function _light
  2565  0A3F                     _light:	
  2566                           
  2567                           ;main.c: 356: if(l7){
  2568                           
  2569                           ;incstack = 0
  2570                           ; Regs used in _light: [wreg+status,2+status,0+pclath+cstack]
  2571  0A3F  0140               	movlb	0	; select bank0
  2572  0A40  082E               	movf	light@l7,w
  2573  0A41  042F               	iorwf	light@l7+1,w
  2574  0A42  1903               	btfsc	3,2
  2575  0A43  2A46               	goto	l365
  2576                           
  2577                           ;main.c: 357: do { LATAbits.LATA0 = 1; } while(0);
  2578  0A44  1418               	bsf	24,0	;volatile
  2579                           
  2580                           ;main.c: 358: }
  2581  0A45  2A47               	goto	l1215
  2582  0A46                     l365:	
  2583                           ;main.c: 359: else{
  2584                           ;main.c: 360: do { LATAbits.LATA0 = 0; } while(0);
  2585                           
  2586  0A46  1018               	bcf	24,0	;volatile
  2587  0A47                     l1215:	
  2588                           
  2589                           ;main.c: 361: }
  2590                           ;main.c: 362: if(l6){
  2591  0A47  0830               	movf	light@l6,w
  2592  0A48  0431               	iorwf	light@l6+1,w
  2593  0A49  1903               	btfsc	3,2
  2594  0A4A  2A4D               	goto	l371
  2595                           
  2596                           ;main.c: 363: do { LATAbits.LATA1 = 1; } while(0);
  2597  0A4B  1498               	bsf	24,1	;volatile
  2598                           
  2599                           ;main.c: 364: }
  2600  0A4C  2A4E               	goto	l1217
  2601  0A4D                     l371:	
  2602                           ;main.c: 365: else{
  2603                           ;main.c: 366: do { LATAbits.LATA1 = 0; } while(0);
  2604                           
  2605  0A4D  1098               	bcf	24,1	;volatile
  2606  0A4E                     l1217:	
  2607                           
  2608                           ;main.c: 367: }
  2609                           ;main.c: 368: if(l5){
  2610  0A4E  0832               	movf	light@l5,w
  2611  0A4F  0433               	iorwf	light@l5+1,w
  2612  0A50  1903               	btfsc	3,2
  2613  0A51  2A54               	goto	l377
  2614                           
  2615                           ;main.c: 369: do { LATAbits.LATA2 = 1; } while(0);
  2616  0A52  1518               	bsf	24,2	;volatile
  2617                           
  2618                           ;main.c: 370: }
  2619  0A53  2A55               	goto	l1219
  2620  0A54                     l377:	
  2621                           ;main.c: 371: else{
  2622                           ;main.c: 372: do { LATAbits.LATA2 = 0; } while(0);
  2623                           
  2624  0A54  1118               	bcf	24,2	;volatile
  2625  0A55                     l1219:	
  2626                           
  2627                           ;main.c: 373: }
  2628                           ;main.c: 374: if(l4){
  2629  0A55  0834               	movf	light@l4,w
  2630  0A56  0435               	iorwf	light@l4+1,w
  2631  0A57  1903               	btfsc	3,2
  2632  0A58  2A5B               	goto	l383
  2633                           
  2634                           ;main.c: 375: do { LATCbits.LATC0 = 1; } while(0);
  2635  0A59  141A               	bsf	26,0	;volatile
  2636                           
  2637                           ;main.c: 376: }
  2638  0A5A  2A5C               	goto	l1221
  2639  0A5B                     l383:	
  2640                           ;main.c: 377: else{
  2641                           ;main.c: 378: do { LATCbits.LATC0 = 0; } while(0);
  2642                           
  2643  0A5B  101A               	bcf	26,0	;volatile
  2644  0A5C                     l1221:	
  2645                           
  2646                           ;main.c: 379: }
  2647                           ;main.c: 380: if(l3){
  2648  0A5C  0836               	movf	light@l3,w
  2649  0A5D  0437               	iorwf	light@l3+1,w
  2650  0A5E  1903               	btfsc	3,2
  2651  0A5F  2A62               	goto	l389
  2652                           
  2653                           ;main.c: 381: do { LATCbits.LATC1 = 1; } while(0);
  2654  0A60  149A               	bsf	26,1	;volatile
  2655                           
  2656                           ;main.c: 382: }
  2657  0A61  2A63               	goto	l1223
  2658  0A62                     l389:	
  2659                           ;main.c: 383: else{
  2660                           ;main.c: 384: do { LATCbits.LATC1 = 0; } while(0);
  2661                           
  2662  0A62  109A               	bcf	26,1	;volatile
  2663  0A63                     l1223:	
  2664                           
  2665                           ;main.c: 385: }
  2666                           ;main.c: 386: if(l2){
  2667  0A63  0838               	movf	light@l2,w
  2668  0A64  0439               	iorwf	light@l2+1,w
  2669  0A65  1903               	btfsc	3,2
  2670  0A66  2A69               	goto	l395
  2671                           
  2672                           ;main.c: 387: do { LATCbits.LATC2 = 1; } while(0);
  2673  0A67  151A               	bsf	26,2	;volatile
  2674                           
  2675                           ;main.c: 388: }
  2676  0A68  2A6A               	goto	l1225
  2677  0A69                     l395:	
  2678                           ;main.c: 389: else{
  2679                           ;main.c: 390: do { LATCbits.LATC2 = 0; } while(0);
  2680                           
  2681  0A69  111A               	bcf	26,2	;volatile
  2682  0A6A                     l1225:	
  2683                           
  2684                           ;main.c: 391: }
  2685                           ;main.c: 392: if(l1){
  2686  0A6A  083A               	movf	light@l1,w
  2687  0A6B  043B               	iorwf	light@l1+1,w
  2688  0A6C  1903               	btfsc	3,2
  2689  0A6D  2A70               	goto	l401
  2690                           
  2691                           ;main.c: 393: do { LATCbits.LATC3 = 1; } while(0);
  2692  0A6E  159A               	bsf	26,3	;volatile
  2693                           
  2694                           ;main.c: 394: }
  2695  0A6F  2A71               	goto	l1227
  2696  0A70                     l401:	
  2697                           ;main.c: 395: else{
  2698                           ;main.c: 396: do { LATCbits.LATC3 = 0; } while(0);
  2699                           
  2700  0A70  119A               	bcf	26,3	;volatile
  2701  0A71                     l1227:	
  2702                           
  2703                           ;main.c: 397: }
  2704                           ;main.c: 398: delay_ms(d);
  2705  0A71  083D               	movf	light@d+1,w
  2706  0A72  00AD               	movwf	delay_ms@milliseconds+1
  2707  0A73  083C               	movf	light@d,w
  2708  0A74  00AC               	movwf	delay_ms@milliseconds
  2709  0A75  3189  21BA         	fcall	_delay_ms
  2710  0A77  0008               	return
  2711  0A78                     __end_of_light:	
  2712                           
  2713                           	psect	text4
  2714  09BA                     __ptext4:	
  2715 ;; *************** function _delay_ms *****************
  2716 ;; Defined at:
  2717 ;;		line 345 in file "main.c"
  2718 ;; Parameters:    Size  Location     Type
  2719 ;;  milliseconds    2   12[BANK0 ] unsigned int 
  2720 ;; Auto vars:     Size  Location     Type
  2721 ;;		None
  2722 ;; Return value:  Size  Location     Type
  2723 ;;                  1    wreg      void 
  2724 ;; Registers used:
  2725 ;;		wreg, status,2, status,0
  2726 ;; Tracked objects:
  2727 ;;		On entry : 0/0
  2728 ;;		On exit  : 0/0
  2729 ;;		Unchanged: 0/0
  2730 ;; Data sizes:     COMMON   BANK0   BANK1   BANK2   BANK3   BANK4   BANK5   BANK6   BANK7   BANK8   BANK9  BANK10  BANK1
      +1  BANK12
  2731 ;;      Params:         0       2       0       0       0       0       0       0       0       0       0       0       
      +0       0
  2732 ;;      Locals:         0       0       0       0       0       0       0       0       0       0       0       0       
      +0       0
  2733 ;;      Temps:          0       0       0       0       0       0       0       0       0       0       0       0       
      +0       0
  2734 ;;      Totals:         0       2       0       0       0       0       0       0       0       0       0       0       
      +0       0
  2735 ;;Total ram usage:        2 bytes
  2736 ;; Hardware stack levels used:    1
  2737 ;; This function calls:
  2738 ;;		Nothing
  2739 ;; This function is called by:
  2740 ;;		_main
  2741 ;;		_light
  2742 ;; This function uses a non-reentrant model
  2743 ;;
  2744                           
  2745                           
  2746                           ;psect for function _delay_ms
  2747  09BA                     _delay_ms:	
  2748  09BA                     l1187:	
  2749                           ;main.c: 347: while(milliseconds > 0)
  2750                           
  2751                           ;incstack = 0
  2752                           ; Regs used in _delay_ms: [wreg+status,2+status,0]
  2753                           
  2754  09BA  0140               	movlb	0	; select bank0
  2755  09BB  082C               	movf	delay_ms@milliseconds,w
  2756  09BC  042D               	iorwf	delay_ms@milliseconds+1,w
  2757  09BD  1903               	btfsc	3,2
  2758  09BE  0008               	return
  2759                           
  2760                           ;main.c: 348: {
  2761                           ;main.c: 349: milliseconds--;
  2762  09BF  3001               	movlw	1
  2763  09C0  0140               	movlb	0	; select bank0
  2764  09C1  02AC               	subwf	delay_ms@milliseconds,f
  2765  09C2  3000               	movlw	0
  2766  09C3  3BAD               	subwfb	delay_ms@milliseconds+1,f
  2767                           
  2768                           ;main.c: 350: _delay((unsigned long)((990)*(1000000/4000000.0)));
  2769  09C4  3052               	movlw	82
  2770  09C5                     u1777:	
  2771  09C5  0B89               	decfsz	9,f
  2772  09C6  29C5               	goto	u1777
  2773  09C7  0000               	nop
  2774  09C8  29BA               	goto	l1187
  2775  09C9                     __end_of_delay_ms:	
  2776                           
  2777                           	psect	text5
  2778  001E                     __ptext5:	
  2779 ;; *************** function ___awmod *****************
  2780 ;; Defined at:
  2781 ;;		line 6 in file "/Applications/microchip/xc8/v1.42/sources/common/awmod.c"
  2782 ;; Parameters:    Size  Location     Type
  2783 ;;  divisor         2    5[BANK0 ] int 
  2784 ;;  dividend        2    7[BANK0 ] int 
  2785 ;; Auto vars:     Size  Location     Type
  2786 ;;  sign            1   11[BANK0 ] unsigned char 
  2787 ;;  counter         1   10[BANK0 ] unsigned char 
  2788 ;; Return value:  Size  Location     Type
  2789 ;;                  2    5[BANK0 ] int 
  2790 ;; Registers used:
  2791 ;;		wreg, status,2, status,0
  2792 ;; Tracked objects:
  2793 ;;		On entry : 0/0
  2794 ;;		On exit  : 0/0
  2795 ;;		Unchanged: 0/0
  2796 ;; Data sizes:     COMMON   BANK0   BANK1   BANK2   BANK3   BANK4   BANK5   BANK6   BANK7   BANK8   BANK9  BANK10  BANK1
      +1  BANK12
  2797 ;;      Params:         0       4       0       0       0       0       0       0       0       0       0       0       
      +0       0
  2798 ;;      Locals:         0       2       0       0       0       0       0       0       0       0       0       0       
      +0       0
  2799 ;;      Temps:          0       1       0       0       0       0       0       0       0       0       0       0       
      +0       0
  2800 ;;      Totals:         0       7       0       0       0       0       0       0       0       0       0       0       
      +0       0
  2801 ;;Total ram usage:        7 bytes
  2802 ;; Hardware stack levels used:    1
  2803 ;; This function calls:
  2804 ;;		Nothing
  2805 ;; This function is called by:
  2806 ;;		_main
  2807 ;; This function uses a non-reentrant model
  2808 ;;
  2809                           
  2810                           
  2811                           ;psect for function ___awmod
  2812  001E                     ___awmod:	
  2813                           
  2814                           ;incstack = 0
  2815                           ; Regs used in ___awmod: [wreg+status,2+status,0]
  2816  001E  0140               	movlb	0	; select bank0
  2817  001F  01AB               	clrf	___awmod@sign
  2818  0020  1FA8               	btfss	___awmod@dividend+1,7
  2819  0021  2829               	goto	l1237
  2820  0022  09A7               	comf	___awmod@dividend,f
  2821  0023  09A8               	comf	___awmod@dividend+1,f
  2822  0024  0AA7               	incf	___awmod@dividend,f
  2823  0025  1903               	skipnz
  2824  0026  0AA8               	incf	___awmod@dividend+1,f
  2825  0027  01AB               	clrf	___awmod@sign
  2826  0028  0AAB               	incf	___awmod@sign,f
  2827  0029                     l1237:	
  2828  0029  1FA6               	btfss	___awmod@divisor+1,7
  2829  002A  2830               	goto	l1241
  2830  002B  09A5               	comf	___awmod@divisor,f
  2831  002C  09A6               	comf	___awmod@divisor+1,f
  2832  002D  0AA5               	incf	___awmod@divisor,f
  2833  002E  1903               	skipnz
  2834  002F  0AA6               	incf	___awmod@divisor+1,f
  2835  0030                     l1241:	
  2836  0030  0825               	movf	___awmod@divisor,w
  2837  0031  0426               	iorwf	___awmod@divisor+1,w
  2838  0032  1903               	btfsc	3,2
  2839  0033  2857               	goto	l1259
  2840  0034  01AA               	clrf	___awmod@counter
  2841  0035  0AAA               	incf	___awmod@counter,f
  2842  0036                     l1249:	
  2843  0036  1BA6               	btfsc	___awmod@divisor+1,7
  2844  0037  2842               	goto	l1251
  2845  0038  3001               	movlw	1
  2846  0039                     u1055:	
  2847  0039  35A5               	lslf	___awmod@divisor,f
  2848  003A  0DA6               	rlf	___awmod@divisor+1,f
  2849  003B  0B89               	decfsz	9,f
  2850  003C  2839               	goto	u1055
  2851  003D  3001               	movlw	1
  2852  003E  00A9               	movwf	??___awmod
  2853  003F  0829               	movf	??___awmod,w
  2854  0040  07AA               	addwf	___awmod@counter,f
  2855  0041  2836               	goto	l1249
  2856  0042                     l1251:	
  2857  0042  0826               	movf	___awmod@divisor+1,w
  2858  0043  0228               	subwf	___awmod@dividend+1,w
  2859  0044  1D03               	skipz
  2860  0045  2848               	goto	u1075
  2861  0046  0825               	movf	___awmod@divisor,w
  2862  0047  0227               	subwf	___awmod@dividend,w
  2863  0048                     u1075:	
  2864  0048  1C03               	skipc
  2865  0049  284E               	goto	l1255
  2866  004A  0825               	movf	___awmod@divisor,w
  2867  004B  02A7               	subwf	___awmod@dividend,f
  2868  004C  0826               	movf	___awmod@divisor+1,w
  2869  004D  3BA8               	subwfb	___awmod@dividend+1,f
  2870  004E                     l1255:	
  2871  004E  3001               	movlw	1
  2872  004F                     u1085:	
  2873  004F  36A6               	lsrf	___awmod@divisor+1,f
  2874  0050  0CA5               	rrf	___awmod@divisor,f
  2875  0051  0B89               	decfsz	9,f
  2876  0052  284F               	goto	u1085
  2877  0053  3001               	movlw	1
  2878  0054  02AA               	subwf	___awmod@counter,f
  2879  0055  1D03               	btfss	3,2
  2880  0056  2842               	goto	l1251
  2881  0057                     l1259:	
  2882  0057  082B               	movf	___awmod@sign,w
  2883  0058  1903               	btfsc	3,2
  2884  0059  285F               	goto	l1263
  2885  005A  09A7               	comf	___awmod@dividend,f
  2886  005B  09A8               	comf	___awmod@dividend+1,f
  2887  005C  0AA7               	incf	___awmod@dividend,f
  2888  005D  1903               	skipnz
  2889  005E  0AA8               	incf	___awmod@dividend+1,f
  2890  005F                     l1263:	
  2891  005F  0828               	movf	___awmod@dividend+1,w
  2892  0060  00A6               	movwf	?___awmod+1
  2893  0061  0827               	movf	___awmod@dividend,w
  2894  0062  00A5               	movwf	?___awmod
  2895  0063  0008               	return
  2896  0064                     __end_of___awmod:	
  2897                           
  2898                           	psect	text6
  2899  09AA                     __ptext6:	
  2900 ;; *************** function _SYSTEM_Initialize *****************
  2901 ;; Defined at:
  2902 ;;		line 86 in file "mcc_generated_files/mcc.c"
  2903 ;; Parameters:    Size  Location     Type
  2904 ;;		None
  2905 ;; Auto vars:     Size  Location     Type
  2906 ;;		None
  2907 ;; Return value:  Size  Location     Type
  2908 ;;                  1    wreg      void 
  2909 ;; Registers used:
  2910 ;;		wreg, status,2, status,0, pclath, cstack
  2911 ;; Tracked objects:
  2912 ;;		On entry : 0/0
  2913 ;;		On exit  : 0/0
  2914 ;;		Unchanged: 0/0
  2915 ;; Data sizes:     COMMON   BANK0   BANK1   BANK2   BANK3   BANK4   BANK5   BANK6   BANK7   BANK8   BANK9  BANK10  BANK1
      +1  BANK12
  2916 ;;      Params:         0       0       0       0       0       0       0       0       0       0       0       0       
      +0       0
  2917 ;;      Locals:         0       0       0       0       0       0       0       0       0       0       0       0       
      +0       0
  2918 ;;      Temps:          0       0       0       0       0       0       0       0       0       0       0       0       
      +0       0
  2919 ;;      Totals:         0       0       0       0       0       0       0       0       0       0       0       0       
      +0       0
  2920 ;;Total ram usage:        0 bytes
  2921 ;; Hardware stack levels used:    1
  2922 ;; Hardware stack levels required when called:    1
  2923 ;; This function calls:
  2924 ;;		_OSCILLATOR_Initialize
  2925 ;;		_PIN_MANAGER_Initialize
  2926 ;; This function is called by:
  2927 ;;		_main
  2928 ;; This function uses a non-reentrant model
  2929 ;;
  2930                           
  2931                           
  2932                           ;psect for function _SYSTEM_Initialize
  2933  09AA                     _SYSTEM_Initialize:	
  2934                           
  2935                           ;mcc.c: 89: PIN_MANAGER_Initialize();
  2936                           
  2937                           ;incstack = 0
  2938                           ; Regs used in _SYSTEM_Initialize: [wreg+status,2+status,0+pclath+cstack]
  2939  09AA  3189  21C9  3189   	fcall	_PIN_MANAGER_Initialize
  2940                           
  2941                           ;mcc.c: 90: OSCILLATOR_Initialize();
  2942  09AD  3189  21B0         	fcall	_OSCILLATOR_Initialize
  2943  09AF  0008               	return
  2944  09B0                     __end_of_SYSTEM_Initialize:	
  2945                           
  2946                           	psect	text7
  2947  09C9                     __ptext7:	
  2948 ;; *************** function _PIN_MANAGER_Initialize *****************
  2949 ;; Defined at:
  2950 ;;		line 52 in file "mcc_generated_files/pin_manager.c"
  2951 ;; Parameters:    Size  Location     Type
  2952 ;;		None
  2953 ;; Auto vars:     Size  Location     Type
  2954 ;;		None
  2955 ;; Return value:  Size  Location     Type
  2956 ;;                  1    wreg      void 
  2957 ;; Registers used:
  2958 ;;		wreg, status,2
  2959 ;; Tracked objects:
  2960 ;;		On entry : 0/0
  2961 ;;		On exit  : 0/0
  2962 ;;		Unchanged: 0/0
  2963 ;; Data sizes:     COMMON   BANK0   BANK1   BANK2   BANK3   BANK4   BANK5   BANK6   BANK7   BANK8   BANK9  BANK10  BANK1
      +1  BANK12
  2964 ;;      Params:         0       0       0       0       0       0       0       0       0       0       0       0       
      +0       0
  2965 ;;      Locals:         0       0       0       0       0       0       0       0       0       0       0       0       
      +0       0
  2966 ;;      Temps:          0       0       0       0       0       0       0       0       0       0       0       0       
      +0       0
  2967 ;;      Totals:         0       0       0       0       0       0       0       0       0       0       0       0       
      +0       0
  2968 ;;Total ram usage:        0 bytes
  2969 ;; Hardware stack levels used:    1
  2970 ;; This function calls:
  2971 ;;		Nothing
  2972 ;; This function is called by:
  2973 ;;		_SYSTEM_Initialize
  2974 ;; This function uses a non-reentrant model
  2975 ;;
  2976                           
  2977                           
  2978                           ;psect for function _PIN_MANAGER_Initialize
  2979  09C9                     _PIN_MANAGER_Initialize:	
  2980                           
  2981                           ;pin_manager.c: 57: LATA = 0x00;
  2982                           
  2983                           ;incstack = 0
  2984                           ; Regs used in _PIN_MANAGER_Initialize: [wreg+status,2]
  2985  09C9  0140               	movlb	0	; select bank0
  2986  09CA  0198               	clrf	24	;volatile
  2987                           
  2988                           ;pin_manager.c: 58: LATC = 0x00;
  2989  09CB  019A               	clrf	26	;volatile
  2990                           
  2991                           ;pin_manager.c: 63: TRISA = 0x30;
  2992  09CC  3030               	movlw	48
  2993  09CD  0092               	movwf	18	;volatile
  2994                           
  2995                           ;pin_manager.c: 64: TRISC = 0x30;
  2996  09CE  3030               	movlw	48
  2997  09CF  0094               	movwf	20	;volatile
  2998                           
  2999                           ;pin_manager.c: 69: ANSELC = 0x2F;
  3000  09D0  302F               	movlw	47
  3001  09D1  017E               	movlb	62	; select bank62
  3002  09D2  00CE               	movwf	78	;volatile
  3003                           
  3004                           ;pin_manager.c: 70: ANSELA = 0x1F;
  3005  09D3  301F               	movlw	31
  3006  09D4  00B8               	movwf	56	;volatile
  3007                           
  3008                           ;pin_manager.c: 75: WPUA = 0x00;
  3009  09D5  01B9               	clrf	57	;volatile
  3010                           
  3011                           ;pin_manager.c: 76: WPUC = 0x10;
  3012  09D6  3010               	movlw	16
  3013  09D7  00CF               	movwf	79	;volatile
  3014                           
  3015                           ;pin_manager.c: 81: ODCONA = 0x00;
  3016  09D8  01BA               	clrf	58	;volatile
  3017                           
  3018                           ;pin_manager.c: 82: ODCONC = 0x00;
  3019  09D9  01D0               	clrf	80	;volatile
  3020  09DA  0008               	return
  3021  09DB                     __end_of_PIN_MANAGER_Initialize:	
  3022                           
  3023                           	psect	text8
  3024  09B0                     __ptext8:	
  3025 ;; *************** function _OSCILLATOR_Initialize *****************
  3026 ;; Defined at:
  3027 ;;		line 93 in file "mcc_generated_files/mcc.c"
  3028 ;; Parameters:    Size  Location     Type
  3029 ;;		None
  3030 ;; Auto vars:     Size  Location     Type
  3031 ;;		None
  3032 ;; Return value:  Size  Location     Type
  3033 ;;                  1    wreg      void 
  3034 ;; Registers used:
  3035 ;;		wreg, status,2
  3036 ;; Tracked objects:
  3037 ;;		On entry : 0/0
  3038 ;;		On exit  : 0/0
  3039 ;;		Unchanged: 0/0
  3040 ;; Data sizes:     COMMON   BANK0   BANK1   BANK2   BANK3   BANK4   BANK5   BANK6   BANK7   BANK8   BANK9  BANK10  BANK1
      +1  BANK12
  3041 ;;      Params:         0       0       0       0       0       0       0       0       0       0       0       0       
      +0       0
  3042 ;;      Locals:         0       0       0       0       0       0       0       0       0       0       0       0       
      +0       0
  3043 ;;      Temps:          0       0       0       0       0       0       0       0       0       0       0       0       
      +0       0
  3044 ;;      Totals:         0       0       0       0       0       0       0       0       0       0       0       0       
      +0       0
  3045 ;;Total ram usage:        0 bytes
  3046 ;; Hardware stack levels used:    1
  3047 ;; This function calls:
  3048 ;;		Nothing
  3049 ;; This function is called by:
  3050 ;;		_SYSTEM_Initialize
  3051 ;; This function uses a non-reentrant model
  3052 ;;
  3053                           
  3054                           
  3055                           ;psect for function _OSCILLATOR_Initialize
  3056  09B0                     _OSCILLATOR_Initialize:	
  3057                           
  3058                           ;mcc.c: 96: OSCCON1 = 0x62;
  3059                           
  3060                           ;incstack = 0
  3061                           ; Regs used in _OSCILLATOR_Initialize: [wreg+status,2]
  3062  09B0  3062               	movlw	98
  3063  09B1  0151               	movlb	17	; select bank17
  3064  09B2  008D               	movwf	13	;volatile
  3065                           
  3066                           ;mcc.c: 98: OSCCON3 = 0x00;
  3067  09B3  018F               	clrf	15	;volatile
  3068                           
  3069                           ;mcc.c: 100: OSCEN = 0x00;
  3070  09B4  0191               	clrf	17	;volatile
  3071                           
  3072                           ;mcc.c: 102: OSCFRQ = 0x02;
  3073  09B5  3002               	movlw	2
  3074  09B6  0093               	movwf	19	;volatile
  3075                           
  3076                           ;mcc.c: 104: OSCSTAT = 0x00;
  3077  09B7  0190               	clrf	16	;volatile
  3078                           
  3079                           ;mcc.c: 106: OSCTUNE = 0x00;
  3080  09B8  0192               	clrf	18	;volatile
  3081  09B9  0008               	return
  3082  09BA                     __end_of_OSCILLATOR_Initialize:	
  3083  007E                     btemp	set	126	;btemp
  3084  007E                     wtemp0	set	126
  3085                           
  3086                           	psect	maintext_split_1
  3087  0B42                     l278:	
  3088                           ;main.c: 219: do { LATCbits.LATC3 = 1; } while(0);
  3089                           
  3090                           ;main.c: 218: case RAILROAD:
  3091                           
  3092  0B42  0140               	movlb	0	; select bank0
  3093  0B43  159A               	bsf	26,3	;volatile
  3094                           
  3095                           ;main.c: 220: do { LATCbits.LATC2 = 0; } while(0);
  3096  0B44  111A               	bcf	26,2	;volatile
  3097                           
  3098                           ;main.c: 221: do { LATCbits.LATC1 = 1; } while(0);
  3099  0B45  149A               	bsf	26,1	;volatile
  3100                           
  3101                           ;main.c: 222: do { LATCbits.LATC0 = 0; } while(0);
  3102  0B46  101A               	bcf	26,0	;volatile
  3103                           
  3104                           ;main.c: 223: do { LATAbits.LATA2 = 1; } while(0);
  3105  0B47  1518               	bsf	24,2	;volatile
  3106                           
  3107                           ;main.c: 224: do { LATAbits.LATA1 = 0; } while(0);
  3108  0B48  1098               	bcf	24,1	;volatile
  3109                           
  3110                           ;main.c: 225: do { LATAbits.LATA0 = 1; } while(0);
  3111  0B49  1418               	bsf	24,0	;volatile
  3112                           
  3113                           ;main.c: 226: delay_ms(200);
  3114  0B4A  30C8               	movlw	200
  3115  0B4B  00AC               	movwf	delay_ms@milliseconds
  3116  0B4C  3000               	movlw	0
  3117  0B4D  00AD               	movwf	delay_ms@milliseconds+1
  3118  0B4E  3189  21BA  318B   	fcall	_delay_ms
  3119                           
  3120                           ;main.c: 227: do { LATCbits.LATC3 = 0; } while(0);
  3121  0B51  0140               	movlb	0	; select bank0
  3122  0B52  119A               	bcf	26,3	;volatile
  3123                           
  3124                           ;main.c: 228: do { LATCbits.LATC2 = 1; } while(0);
  3125  0B53  151A               	bsf	26,2	;volatile
  3126                           
  3127                           ;main.c: 229: do { LATCbits.LATC1 = 0; } while(0);
  3128  0B54  109A               	bcf	26,1	;volatile
  3129                           
  3130                           ;main.c: 230: do { LATCbits.LATC0 = 1; } while(0);
  3131  0B55  141A               	bsf	26,0	;volatile
  3132                           
  3133                           ;main.c: 231: do { LATAbits.LATA2 = 0; } while(0);
  3134  0B56  1118               	bcf	24,2	;volatile
  3135                           
  3136                           ;main.c: 232: do { LATAbits.LATA1 = 1; } while(0);
  3137  0B57  1498               	bsf	24,1	;volatile
  3138                           
  3139                           ;main.c: 233: do { LATAbits.LATA0 = 0; } while(0);
  3140  0B58  1018               	bcf	24,0	;volatile
  3141                           
  3142                           ;main.c: 234: delay_ms(200);
  3143  0B59  30C8               	movlw	200
  3144  0B5A  00AC               	movwf	delay_ms@milliseconds
  3145  0B5B  3000               	movlw	0
  3146  0B5C  00AD               	movwf	delay_ms@milliseconds+1
  3147  0B5D  3189  21BA  318B   	fcall	_delay_ms
  3148  0B60                     L8:	
  3149                           
  3150                           ;main.c: 235: break;
  3151  0B60  318D  2DA4         	goto	l1279
  3152  0B62                     l1443:	
  3153                           ;main.c: 236: case TAE:
  3154                           
  3155                           
  3156                           ;main.c: 237: light(1,0,0,0,0,0,0,dotDelay);
  3157  0B62  3001               	movlw	1
  3158  0B63  0140               	movlb	0	; select bank0
  3159  0B64  00AE               	movwf	light@l7
  3160  0B65  3000               	movlw	0
  3161  0B66  00AF               	movwf	light@l7+1
  3162  0B67  3000               	movlw	0
  3163  0B68  00B0               	movwf	light@l6
  3164  0B69  00B1               	movwf	light@l6+1
  3165  0B6A  3000               	movlw	0
  3166  0B6B  00B2               	movwf	light@l5
  3167  0B6C  00B3               	movwf	light@l5+1
  3168  0B6D  3000               	movlw	0
  3169  0B6E  00B4               	movwf	light@l4
  3170  0B6F  00B5               	movwf	light@l4+1
  3171  0B70  3000               	movlw	0
  3172  0B71  00B6               	movwf	light@l3
  3173  0B72  00B7               	movwf	light@l3+1
  3174  0B73  3000               	movlw	0
  3175  0B74  00B8               	movwf	light@l2
  3176  0B75  00B9               	movwf	light@l2+1
  3177  0B76  3000               	movlw	0
  3178  0B77  00BA               	movwf	light@l1
  3179  0B78  00BB               	movwf	light@l1+1
  3180  0B79  0141               	movlb	1	; select bank1
  3181  0B7A  085D               	movf	(main@dotDelay+1)^(0+128),w
  3182  0B7B  0140               	movlb	0	; select bank0
  3183  0B7C  00BD               	movwf	light@d+1
  3184  0B7D  0141               	movlb	1	; select bank1
  3185  0B7E  085C               	movf	main@dotDelay^(0+128),w
  3186  0B7F  0140               	movlb	0	; select bank0
  3187  0B80  00BC               	movwf	light@d
  3188  0B81  318A  223F  318B   	fcall	_light
  3189                           
  3190                           ;main.c: 238: light(1,0,0,0,0,0,0,dotDelay);
  3191  0B84  3001               	movlw	1
  3192  0B85  0140               	movlb	0	; select bank0
  3193  0B86  00AE               	movwf	light@l7
  3194  0B87  3000               	movlw	0
  3195  0B88  00AF               	movwf	light@l7+1
  3196  0B89  3000               	movlw	0
  3197  0B8A  00B0               	movwf	light@l6
  3198  0B8B  00B1               	movwf	light@l6+1
  3199  0B8C  3000               	movlw	0
  3200  0B8D  00B2               	movwf	light@l5
  3201  0B8E  00B3               	movwf	light@l5+1
  3202  0B8F  3000               	movlw	0
  3203  0B90  00B4               	movwf	light@l4
  3204  0B91  00B5               	movwf	light@l4+1
  3205  0B92  3000               	movlw	0
  3206  0B93  00B6               	movwf	light@l3
  3207  0B94  00B7               	movwf	light@l3+1
  3208  0B95  3000               	movlw	0
  3209  0B96  00B8               	movwf	light@l2
  3210  0B97  00B9               	movwf	light@l2+1
  3211  0B98  3000               	movlw	0
  3212  0B99  00BA               	movwf	light@l1
  3213  0B9A  00BB               	movwf	light@l1+1
  3214  0B9B  0141               	movlb	1	; select bank1
  3215  0B9C  085D               	movf	(main@dotDelay+1)^(0+128),w
  3216  0B9D  0140               	movlb	0	; select bank0
  3217  0B9E  00BD               	movwf	light@d+1
  3218  0B9F  0141               	movlb	1	; select bank1
  3219  0BA0  085C               	movf	main@dotDelay^(0+128),w
  3220  0BA1  0140               	movlb	0	; select bank0
  3221  0BA2  00BC               	movwf	light@d
  3222  0BA3  318A  223F  318B   	fcall	_light
  3223                           
  3224                           ;main.c: 239: light(1,1,1,1,1,1,1,dotDelay);
  3225  0BA6  3001               	movlw	1
  3226  0BA7  0140               	movlb	0	; select bank0
  3227  0BA8  00AE               	movwf	light@l7
  3228  0BA9  3000               	movlw	0
  3229  0BAA  00AF               	movwf	light@l7+1
  3230  0BAB  3001               	movlw	1
  3231  0BAC  00B0               	movwf	light@l6
  3232  0BAD  3000               	movlw	0
  3233  0BAE  00B1               	movwf	light@l6+1
  3234  0BAF  3001               	movlw	1
  3235  0BB0  00B2               	movwf	light@l5
  3236  0BB1  3000               	movlw	0
  3237  0BB2  00B3               	movwf	light@l5+1
  3238  0BB3  3001               	movlw	1
  3239  0BB4  00B4               	movwf	light@l4
  3240  0BB5  3000               	movlw	0
  3241  0BB6  00B5               	movwf	light@l4+1
  3242  0BB7  3001               	movlw	1
  3243  0BB8  00B6               	movwf	light@l3
  3244  0BB9  3000               	movlw	0
  3245  0BBA  00B7               	movwf	light@l3+1
  3246  0BBB  3001               	movlw	1
  3247  0BBC  00B8               	movwf	light@l2
  3248  0BBD  3000               	movlw	0
  3249  0BBE  00B9               	movwf	light@l2+1
  3250  0BBF  3001               	movlw	1
  3251  0BC0  00BA               	movwf	light@l1
  3252  0BC1  3000               	movlw	0
  3253  0BC2  00BB               	movwf	light@l1+1
  3254  0BC3  0141               	movlb	1	; select bank1
  3255  0BC4  085D               	movf	(main@dotDelay+1)^(0+128),w
  3256  0BC5  0140               	movlb	0	; select bank0
  3257  0BC6  00BD               	movwf	light@d+1
  3258  0BC7  0141               	movlb	1	; select bank1
  3259  0BC8  085C               	movf	main@dotDelay^(0+128),w
  3260  0BC9  0140               	movlb	0	; select bank0
  3261  0BCA  00BC               	movwf	light@d
  3262  0BCB  318A  223F         	fcall	_light
  3263                           
  3264                           ;main.c: 240: light(1,0,0,0,0,0,0,dotDelay);
  3265  0BCD  3001               	movlw	1
  3266  0BCE  318A  2AB4         	ljmp	L9
  3267                           
  3268                           	psect	maintext_split_2
  3269  0AB4                     L9:	
  3270  0AB4  0140               	movlb	0	; select bank0
  3271  0AB5  00AE               	movwf	light@l7
  3272  0AB6  3000               	movlw	0
  3273  0AB7  00AF               	movwf	light@l7+1
  3274  0AB8  3000               	movlw	0
  3275  0AB9  00B0               	movwf	light@l6
  3276  0ABA  00B1               	movwf	light@l6+1
  3277  0ABB  3000               	movlw	0
  3278  0ABC  00B2               	movwf	light@l5
  3279  0ABD  00B3               	movwf	light@l5+1
  3280  0ABE  3000               	movlw	0
  3281  0ABF  00B4               	movwf	light@l4
  3282  0AC0  00B5               	movwf	light@l4+1
  3283  0AC1  3000               	movlw	0
  3284  0AC2  00B6               	movwf	light@l3
  3285  0AC3  00B7               	movwf	light@l3+1
  3286  0AC4  3000               	movlw	0
  3287  0AC5  00B8               	movwf	light@l2
  3288  0AC6  00B9               	movwf	light@l2+1
  3289  0AC7  3000               	movlw	0
  3290  0AC8  00BA               	movwf	light@l1
  3291  0AC9  00BB               	movwf	light@l1+1
  3292  0ACA  0141               	movlb	1	; select bank1
  3293  0ACB  085D               	movf	(main@dotDelay+1)^(0+128),w
  3294  0ACC  0140               	movlb	0	; select bank0
  3295  0ACD  00BD               	movwf	light@d+1
  3296  0ACE  0141               	movlb	1	; select bank1
  3297  0ACF  085C               	movf	main@dotDelay^(0+128),w
  3298  0AD0  0140               	movlb	0	; select bank0
  3299  0AD1  00BC               	movwf	light@d
  3300  0AD2  318A  223F  318A   	fcall	_light
  3301                           
  3302                           ;main.c: 241: light(1,0,0,0,0,0,0,dotDelay);
  3303  0AD5  3001               	movlw	1
  3304  0AD6  0140               	movlb	0	; select bank0
  3305  0AD7  00AE               	movwf	light@l7
  3306  0AD8  3000               	movlw	0
  3307  0AD9  00AF               	movwf	light@l7+1
  3308  0ADA  3000               	movlw	0
  3309  0ADB  00B0               	movwf	light@l6
  3310  0ADC  00B1               	movwf	light@l6+1
  3311  0ADD  3000               	movlw	0
  3312  0ADE  00B2               	movwf	light@l5
  3313  0ADF  00B3               	movwf	light@l5+1
  3314  0AE0  3000               	movlw	0
  3315  0AE1  00B4               	movwf	light@l4
  3316  0AE2  00B5               	movwf	light@l4+1
  3317  0AE3  3000               	movlw	0
  3318  0AE4  00B6               	movwf	light@l3
  3319  0AE5  00B7               	movwf	light@l3+1
  3320  0AE6  3000               	movlw	0
  3321  0AE7  00B8               	movwf	light@l2
  3322  0AE8  00B9               	movwf	light@l2+1
  3323  0AE9  3000               	movlw	0
  3324  0AEA  00BA               	movwf	light@l1
  3325  0AEB  00BB               	movwf	light@l1+1
  3326  0AEC  0141               	movlb	1	; select bank1
  3327  0AED  085D               	movf	(main@dotDelay+1)^(0+128),w
  3328  0AEE  0140               	movlb	0	; select bank0
  3329  0AEF  00BD               	movwf	light@d+1
  3330  0AF0  0141               	movlb	1	; select bank1
  3331  0AF1  085C               	movf	main@dotDelay^(0+128),w
  3332  0AF2  0140               	movlb	0	; select bank0
  3333  0AF3  00BC               	movwf	light@d
  3334  0AF4  318A  223F  318A   	fcall	_light
  3335                           
  3336                           ;main.c: 242: light(0,0,0,0,0,0,0,spaceDelay);
  3337  0AF7  3000               	movlw	0
  3338  0AF8  0140               	movlb	0	; select bank0
  3339  0AF9  00AE               	movwf	light@l7
  3340  0AFA  00AF               	movwf	light@l7+1
  3341  0AFB  3000               	movlw	0
  3342  0AFC  00B0               	movwf	light@l6
  3343  0AFD  00B1               	movwf	light@l6+1
  3344  0AFE  3000               	movlw	0
  3345  0AFF  00B2               	movwf	light@l5
  3346  0B00  00B3               	movwf	light@l5+1
  3347  0B01  3000               	movlw	0
  3348  0B02  00B4               	movwf	light@l4
  3349  0B03  00B5               	movwf	light@l4+1
  3350  0B04  3000               	movlw	0
  3351  0B05  00B6               	movwf	light@l3
  3352  0B06  00B7               	movwf	light@l3+1
  3353  0B07  3000               	movlw	0
  3354  0B08  00B8               	movwf	light@l2
  3355  0B09  00B9               	movwf	light@l2+1
  3356  0B0A  3000               	movlw	0
  3357  0B0B  00BA               	movwf	light@l1
  3358  0B0C  00BB               	movwf	light@l1+1
  3359  0B0D  0141               	movlb	1	; select bank1
  3360  0B0E  085B               	movf	(main@spaceDelay+1)^(0+128),w
  3361  0B0F  0140               	movlb	0	; select bank0
  3362  0B10  00BD               	movwf	light@d+1
  3363  0B11  0141               	movlb	1	; select bank1
  3364  0B12  085A               	movf	main@spaceDelay^(0+128),w
  3365  0B13  0140               	movlb	0	; select bank0
  3366  0B14  00BC               	movwf	light@d
  3367  0B15  318A  223F  318A   	fcall	_light
  3368                           
  3369                           ;main.c: 243: light(1,1,1,1,1,1,1,dotDelay);
  3370  0B18  3001               	movlw	1
  3371  0B19  0140               	movlb	0	; select bank0
  3372  0B1A  00AE               	movwf	light@l7
  3373  0B1B  3000               	movlw	0
  3374  0B1C  00AF               	movwf	light@l7+1
  3375  0B1D  3001               	movlw	1
  3376  0B1E  00B0               	movwf	light@l6
  3377  0B1F  3000               	movlw	0
  3378  0B20  00B1               	movwf	light@l6+1
  3379  0B21  3001               	movlw	1
  3380  0B22  00B2               	movwf	light@l5
  3381  0B23  3000               	movlw	0
  3382  0B24  00B3               	movwf	light@l5+1
  3383  0B25  3001               	movlw	1
  3384  0B26  00B4               	movwf	light@l4
  3385  0B27  3000               	movlw	0
  3386  0B28  00B5               	movwf	light@l4+1
  3387  0B29  3001               	movlw	1
  3388  0B2A  00B6               	movwf	light@l3
  3389  0B2B  3000               	movlw	0
  3390  0B2C  00B7               	movwf	light@l3+1
  3391  0B2D  3001               	movlw	1
  3392  0B2E  00B8               	movwf	light@l2
  3393  0B2F  3000               	movlw	0
  3394  0B30  00B9               	movwf	light@l2+1
  3395  0B31  3001               	movlw	1
  3396  0B32  00BA               	movwf	light@l1
  3397  0B33  3000               	movlw	0
  3398  0B34  00BB               	movwf	light@l1+1
  3399  0B35  0141               	movlb	1	; select bank1
  3400  0B36  085D               	movf	(main@dotDelay+1)^(0+128),w
  3401  0B37  0140               	movlb	0	; select bank0
  3402  0B38  00BD               	movwf	light@d+1
  3403  0B39  0141               	movlb	1	; select bank1
  3404  0B3A  085C               	movf	main@dotDelay^(0+128),w
  3405  0B3B  0140               	movlb	0	; select bank0
  3406  0B3C  00BC               	movwf	light@d
  3407  0B3D  318A  223F         	fcall	_light
  3408                           
  3409                           ;main.c: 244: light(1,0,0,1,0,0,0,dotDelay);
  3410  0B3F  3001               	movlw	1
  3411  0B40  318C  2CF4         	ljmp	L11
  3412                           
  3413                           	psect	maintext_split_3
  3414  0CF4                     L11:	
  3415  0CF4  0140               	movlb	0	; select bank0
  3416  0CF5  00AE               	movwf	light@l7
  3417  0CF6  3000               	movlw	0
  3418  0CF7  00AF               	movwf	light@l7+1
  3419  0CF8  3000               	movlw	0
  3420  0CF9  00B0               	movwf	light@l6
  3421  0CFA  00B1               	movwf	light@l6+1
  3422  0CFB  3000               	movlw	0
  3423  0CFC  00B2               	movwf	light@l5
  3424  0CFD  00B3               	movwf	light@l5+1
  3425  0CFE  3001               	movlw	1
  3426  0CFF  00B4               	movwf	light@l4
  3427  0D00  3000               	movlw	0
  3428  0D01  00B5               	movwf	light@l4+1
  3429  0D02  3000               	movlw	0
  3430  0D03  00B6               	movwf	light@l3
  3431  0D04  00B7               	movwf	light@l3+1
  3432  0D05  3000               	movlw	0
  3433  0D06  00B8               	movwf	light@l2
  3434  0D07  00B9               	movwf	light@l2+1
  3435  0D08  3000               	movlw	0
  3436  0D09  00BA               	movwf	light@l1
  3437  0D0A  00BB               	movwf	light@l1+1
  3438  0D0B  0141               	movlb	1	; select bank1
  3439  0D0C  085D               	movf	(main@dotDelay+1)^(0+128),w
  3440  0D0D  0140               	movlb	0	; select bank0
  3441  0D0E  00BD               	movwf	light@d+1
  3442  0D0F  0141               	movlb	1	; select bank1
  3443  0D10  085C               	movf	main@dotDelay^(0+128),w
  3444  0D11  0140               	movlb	0	; select bank0
  3445  0D12  00BC               	movwf	light@d
  3446  0D13  318A  223F  318C   	fcall	_light
  3447                           
  3448                           ;main.c: 245: light(1,0,0,1,0,0,0,dotDelay);
  3449  0D16  3001               	movlw	1
  3450  0D17  0140               	movlb	0	; select bank0
  3451  0D18  00AE               	movwf	light@l7
  3452  0D19  3000               	movlw	0
  3453  0D1A  00AF               	movwf	light@l7+1
  3454  0D1B  3000               	movlw	0
  3455  0D1C  00B0               	movwf	light@l6
  3456  0D1D  00B1               	movwf	light@l6+1
  3457  0D1E  3000               	movlw	0
  3458  0D1F  00B2               	movwf	light@l5
  3459  0D20  00B3               	movwf	light@l5+1
  3460  0D21  3001               	movlw	1
  3461  0D22  00B4               	movwf	light@l4
  3462  0D23  3000               	movlw	0
  3463  0D24  00B5               	movwf	light@l4+1
  3464  0D25  3000               	movlw	0
  3465  0D26  00B6               	movwf	light@l3
  3466  0D27  00B7               	movwf	light@l3+1
  3467  0D28  3000               	movlw	0
  3468  0D29  00B8               	movwf	light@l2
  3469  0D2A  00B9               	movwf	light@l2+1
  3470  0D2B  3000               	movlw	0
  3471  0D2C  00BA               	movwf	light@l1
  3472  0D2D  00BB               	movwf	light@l1+1
  3473  0D2E  0141               	movlb	1	; select bank1
  3474  0D2F  085D               	movf	(main@dotDelay+1)^(0+128),w
  3475  0D30  0140               	movlb	0	; select bank0
  3476  0D31  00BD               	movwf	light@d+1
  3477  0D32  0141               	movlb	1	; select bank1
  3478  0D33  085C               	movf	main@dotDelay^(0+128),w
  3479  0D34  0140               	movlb	0	; select bank0
  3480  0D35  00BC               	movwf	light@d
  3481  0D36  318A  223F  318C   	fcall	_light
  3482                           
  3483                           ;main.c: 246: light(1,0,0,1,0,0,0,dotDelay);
  3484  0D39  3001               	movlw	1
  3485  0D3A  0140               	movlb	0	; select bank0
  3486  0D3B  00AE               	movwf	light@l7
  3487  0D3C  3000               	movlw	0
  3488  0D3D  00AF               	movwf	light@l7+1
  3489  0D3E  3000               	movlw	0
  3490  0D3F  00B0               	movwf	light@l6
  3491  0D40  00B1               	movwf	light@l6+1
  3492  0D41  3000               	movlw	0
  3493  0D42  00B2               	movwf	light@l5
  3494  0D43  00B3               	movwf	light@l5+1
  3495  0D44  3001               	movlw	1
  3496  0D45  00B4               	movwf	light@l4
  3497  0D46  3000               	movlw	0
  3498  0D47  00B5               	movwf	light@l4+1
  3499  0D48  3000               	movlw	0
  3500  0D49  00B6               	movwf	light@l3
  3501  0D4A  00B7               	movwf	light@l3+1
  3502  0D4B  3000               	movlw	0
  3503  0D4C  00B8               	movwf	light@l2
  3504  0D4D  00B9               	movwf	light@l2+1
  3505  0D4E  3000               	movlw	0
  3506  0D4F  00BA               	movwf	light@l1
  3507  0D50  00BB               	movwf	light@l1+1
  3508  0D51  0141               	movlb	1	; select bank1
  3509  0D52  085D               	movf	(main@dotDelay+1)^(0+128),w
  3510  0D53  0140               	movlb	0	; select bank0
  3511  0D54  00BD               	movwf	light@d+1
  3512  0D55  0141               	movlb	1	; select bank1
  3513  0D56  085C               	movf	main@dotDelay^(0+128),w
  3514  0D57  0140               	movlb	0	; select bank0
  3515  0D58  00BC               	movwf	light@d
  3516  0D59  318A  223F  318C   	fcall	_light
  3517                           
  3518                           ;main.c: 247: light(1,1,1,1,1,1,1,dotDelay);
  3519  0D5C  3001               	movlw	1
  3520  0D5D  0140               	movlb	0	; select bank0
  3521  0D5E  00AE               	movwf	light@l7
  3522  0D5F  3000               	movlw	0
  3523  0D60  00AF               	movwf	light@l7+1
  3524  0D61  3001               	movlw	1
  3525  0D62  00B0               	movwf	light@l6
  3526  0D63  3000               	movlw	0
  3527  0D64  00B1               	movwf	light@l6+1
  3528  0D65  3001               	movlw	1
  3529  0D66  00B2               	movwf	light@l5
  3530  0D67  3000               	movlw	0
  3531  0D68  00B3               	movwf	light@l5+1
  3532  0D69  3001               	movlw	1
  3533  0D6A  00B4               	movwf	light@l4
  3534  0D6B  3000               	movlw	0
  3535  0D6C  00B5               	movwf	light@l4+1
  3536  0D6D  3001               	movlw	1
  3537  0D6E  00B6               	movwf	light@l3
  3538  0D6F  3000               	movlw	0
  3539  0D70  00B7               	movwf	light@l3+1
  3540  0D71  3001               	movlw	1
  3541  0D72  00B8               	movwf	light@l2
  3542  0D73  3000               	movlw	0
  3543  0D74  00B9               	movwf	light@l2+1
  3544  0D75  3001               	movlw	1
  3545  0D76  00BA               	movwf	light@l1
  3546  0D77  3000               	movlw	0
  3547  0D78  00BB               	movwf	light@l1+1
  3548  0D79  0141               	movlb	1	; select bank1
  3549  0D7A  085D               	movf	(main@dotDelay+1)^(0+128),w
  3550  0D7B  0140               	movlb	0	; select bank0
  3551  0D7C  00BD               	movwf	light@d+1
  3552  0D7D  0141               	movlb	1	; select bank1
  3553  0D7E  085C               	movf	main@dotDelay^(0+128),w
  3554  0D7F  0140               	movlb	0	; select bank0
  3555  0D80  00BC               	movwf	light@d
  3556  0D81  318A  223F         	fcall	_light
  3557                           
  3558                           ;main.c: 248: light(0,0,0,0,0,0,0,spaceDelay);
  3559  0D83  3000               	movlw	0
  3560  0D84  318C  2C62         	ljmp	L12
  3561                           
  3562                           	psect	maintext_split_4
  3563  0C62                     L12:	
  3564  0C62  0140               	movlb	0	; select bank0
  3565  0C63  00AE               	movwf	light@l7
  3566  0C64  00AF               	movwf	light@l7+1
  3567  0C65  3000               	movlw	0
  3568  0C66  00B0               	movwf	light@l6
  3569  0C67  00B1               	movwf	light@l6+1
  3570  0C68  3000               	movlw	0
  3571  0C69  00B2               	movwf	light@l5
  3572  0C6A  00B3               	movwf	light@l5+1
  3573  0C6B  3000               	movlw	0
  3574  0C6C  00B4               	movwf	light@l4
  3575  0C6D  00B5               	movwf	light@l4+1
  3576  0C6E  3000               	movlw	0
  3577  0C6F  00B6               	movwf	light@l3
  3578  0C70  00B7               	movwf	light@l3+1
  3579  0C71  3000               	movlw	0
  3580  0C72  00B8               	movwf	light@l2
  3581  0C73  00B9               	movwf	light@l2+1
  3582  0C74  3000               	movlw	0
  3583  0C75  00BA               	movwf	light@l1
  3584  0C76  00BB               	movwf	light@l1+1
  3585  0C77  0141               	movlb	1	; select bank1
  3586  0C78  085B               	movf	(main@spaceDelay+1)^(0+128),w
  3587  0C79  0140               	movlb	0	; select bank0
  3588  0C7A  00BD               	movwf	light@d+1
  3589  0C7B  0141               	movlb	1	; select bank1
  3590  0C7C  085A               	movf	main@spaceDelay^(0+128),w
  3591  0C7D  0140               	movlb	0	; select bank0
  3592  0C7E  00BC               	movwf	light@d
  3593  0C7F  318A  223F  318C   	fcall	_light
  3594                           
  3595                           ;main.c: 249: light(1,1,1,1,1,1,1,dotDelay);
  3596  0C82  3001               	movlw	1
  3597  0C83  0140               	movlb	0	; select bank0
  3598  0C84  00AE               	movwf	light@l7
  3599  0C85  3000               	movlw	0
  3600  0C86  00AF               	movwf	light@l7+1
  3601  0C87  3001               	movlw	1
  3602  0C88  00B0               	movwf	light@l6
  3603  0C89  3000               	movlw	0
  3604  0C8A  00B1               	movwf	light@l6+1
  3605  0C8B  3001               	movlw	1
  3606  0C8C  00B2               	movwf	light@l5
  3607  0C8D  3000               	movlw	0
  3608  0C8E  00B3               	movwf	light@l5+1
  3609  0C8F  3001               	movlw	1
  3610  0C90  00B4               	movwf	light@l4
  3611  0C91  3000               	movlw	0
  3612  0C92  00B5               	movwf	light@l4+1
  3613  0C93  3001               	movlw	1
  3614  0C94  00B6               	movwf	light@l3
  3615  0C95  3000               	movlw	0
  3616  0C96  00B7               	movwf	light@l3+1
  3617  0C97  3001               	movlw	1
  3618  0C98  00B8               	movwf	light@l2
  3619  0C99  3000               	movlw	0
  3620  0C9A  00B9               	movwf	light@l2+1
  3621  0C9B  3001               	movlw	1
  3622  0C9C  00BA               	movwf	light@l1
  3623  0C9D  3000               	movlw	0
  3624  0C9E  00BB               	movwf	light@l1+1
  3625  0C9F  0141               	movlb	1	; select bank1
  3626  0CA0  085D               	movf	(main@dotDelay+1)^(0+128),w
  3627  0CA1  0140               	movlb	0	; select bank0
  3628  0CA2  00BD               	movwf	light@d+1
  3629  0CA3  0141               	movlb	1	; select bank1
  3630  0CA4  085C               	movf	main@dotDelay^(0+128),w
  3631  0CA5  0140               	movlb	0	; select bank0
  3632  0CA6  00BC               	movwf	light@d
  3633  0CA7  318A  223F  318C   	fcall	_light
  3634                           
  3635                           ;main.c: 250: light(1,0,0,1,0,0,1,dotDelay);
  3636  0CAA  3001               	movlw	1
  3637  0CAB  0140               	movlb	0	; select bank0
  3638  0CAC  00AE               	movwf	light@l7
  3639  0CAD  3000               	movlw	0
  3640  0CAE  00AF               	movwf	light@l7+1
  3641  0CAF  3000               	movlw	0
  3642  0CB0  00B0               	movwf	light@l6
  3643  0CB1  00B1               	movwf	light@l6+1
  3644  0CB2  3000               	movlw	0
  3645  0CB3  00B2               	movwf	light@l5
  3646  0CB4  00B3               	movwf	light@l5+1
  3647  0CB5  3001               	movlw	1
  3648  0CB6  00B4               	movwf	light@l4
  3649  0CB7  3000               	movlw	0
  3650  0CB8  00B5               	movwf	light@l4+1
  3651  0CB9  3000               	movlw	0
  3652  0CBA  00B6               	movwf	light@l3
  3653  0CBB  00B7               	movwf	light@l3+1
  3654  0CBC  3000               	movlw	0
  3655  0CBD  00B8               	movwf	light@l2
  3656  0CBE  00B9               	movwf	light@l2+1
  3657  0CBF  3001               	movlw	1
  3658  0CC0  00BA               	movwf	light@l1
  3659  0CC1  3000               	movlw	0
  3660  0CC2  00BB               	movwf	light@l1+1
  3661  0CC3  0141               	movlb	1	; select bank1
  3662  0CC4  085D               	movf	(main@dotDelay+1)^(0+128),w
  3663  0CC5  0140               	movlb	0	; select bank0
  3664  0CC6  00BD               	movwf	light@d+1
  3665  0CC7  0141               	movlb	1	; select bank1
  3666  0CC8  085C               	movf	main@dotDelay^(0+128),w
  3667  0CC9  0140               	movlb	0	; select bank0
  3668  0CCA  00BC               	movwf	light@d
  3669  0CCB  318A  223F  318C   	fcall	_light
  3670                           
  3671                           ;main.c: 251: light(1,0,0,1,0,0,1,dotDelay);
  3672  0CCE  3001               	movlw	1
  3673  0CCF  0140               	movlb	0	; select bank0
  3674  0CD0  00AE               	movwf	light@l7
  3675  0CD1  3000               	movlw	0
  3676  0CD2  00AF               	movwf	light@l7+1
  3677  0CD3  3000               	movlw	0
  3678  0CD4  00B0               	movwf	light@l6
  3679  0CD5  00B1               	movwf	light@l6+1
  3680  0CD6  3000               	movlw	0
  3681  0CD7  00B2               	movwf	light@l5
  3682  0CD8  00B3               	movwf	light@l5+1
  3683  0CD9  3001               	movlw	1
  3684  0CDA  00B4               	movwf	light@l4
  3685  0CDB  3000               	movlw	0
  3686  0CDC  00B5               	movwf	light@l4+1
  3687  0CDD  3000               	movlw	0
  3688  0CDE  00B6               	movwf	light@l3
  3689  0CDF  00B7               	movwf	light@l3+1
  3690  0CE0  3000               	movlw	0
  3691  0CE1  00B8               	movwf	light@l2
  3692  0CE2  00B9               	movwf	light@l2+1
  3693  0CE3  3001               	movlw	1
  3694  0CE4  00BA               	movwf	light@l1
  3695  0CE5  3000               	movlw	0
  3696  0CE6  00BB               	movwf	light@l1+1
  3697  0CE7  0141               	movlb	1	; select bank1
  3698  0CE8  085D               	movf	(main@dotDelay+1)^(0+128),w
  3699  0CE9  0140               	movlb	0	; select bank0
  3700  0CEA  00BD               	movwf	light@d+1
  3701  0CEB  0141               	movlb	1	; select bank1
  3702  0CEC  085C               	movf	main@dotDelay^(0+128),w
  3703  0CED  0140               	movlb	0	; select bank0
  3704  0CEE  00BC               	movwf	light@d
  3705  0CEF  318A  223F         	fcall	_light
  3706                           
  3707                           ;main.c: 252: light(1,0,0,1,0,0,1,dotDelay);
  3708  0CF1  3001               	movlw	1
  3709  0CF2  318B  2BD0         	ljmp	L13
  3710                           
  3711                           	psect	maintext_split_5
  3712  0BD0                     L13:	
  3713  0BD0  0140               	movlb	0	; select bank0
  3714  0BD1  00AE               	movwf	light@l7
  3715  0BD2  3000               	movlw	0
  3716  0BD3  00AF               	movwf	light@l7+1
  3717  0BD4  3000               	movlw	0
  3718  0BD5  00B0               	movwf	light@l6
  3719  0BD6  00B1               	movwf	light@l6+1
  3720  0BD7  3000               	movlw	0
  3721  0BD8  00B2               	movwf	light@l5
  3722  0BD9  00B3               	movwf	light@l5+1
  3723  0BDA  3001               	movlw	1
  3724  0BDB  00B4               	movwf	light@l4
  3725  0BDC  3000               	movlw	0
  3726  0BDD  00B5               	movwf	light@l4+1
  3727  0BDE  3000               	movlw	0
  3728  0BDF  00B6               	movwf	light@l3
  3729  0BE0  00B7               	movwf	light@l3+1
  3730  0BE1  3000               	movlw	0
  3731  0BE2  00B8               	movwf	light@l2
  3732  0BE3  00B9               	movwf	light@l2+1
  3733  0BE4  3001               	movlw	1
  3734  0BE5  00BA               	movwf	light@l1
  3735  0BE6  3000               	movlw	0
  3736  0BE7  00BB               	movwf	light@l1+1
  3737  0BE8  0141               	movlb	1	; select bank1
  3738  0BE9  085D               	movf	(main@dotDelay+1)^(0+128),w
  3739  0BEA  0140               	movlb	0	; select bank0
  3740  0BEB  00BD               	movwf	light@d+1
  3741  0BEC  0141               	movlb	1	; select bank1
  3742  0BED  085C               	movf	main@dotDelay^(0+128),w
  3743  0BEE  0140               	movlb	0	; select bank0
  3744  0BEF  00BC               	movwf	light@d
  3745  0BF0  318A  223F  318B   	fcall	_light
  3746                           
  3747                           ;main.c: 253: light(1,0,0,1,0,0,1,dotDelay);
  3748  0BF3  3001               	movlw	1
  3749  0BF4  0140               	movlb	0	; select bank0
  3750  0BF5  00AE               	movwf	light@l7
  3751  0BF6  3000               	movlw	0
  3752  0BF7  00AF               	movwf	light@l7+1
  3753  0BF8  3000               	movlw	0
  3754  0BF9  00B0               	movwf	light@l6
  3755  0BFA  00B1               	movwf	light@l6+1
  3756  0BFB  3000               	movlw	0
  3757  0BFC  00B2               	movwf	light@l5
  3758  0BFD  00B3               	movwf	light@l5+1
  3759  0BFE  3001               	movlw	1
  3760  0BFF  00B4               	movwf	light@l4
  3761  0C00  3000               	movlw	0
  3762  0C01  00B5               	movwf	light@l4+1
  3763  0C02  3000               	movlw	0
  3764  0C03  00B6               	movwf	light@l3
  3765  0C04  00B7               	movwf	light@l3+1
  3766  0C05  3000               	movlw	0
  3767  0C06  00B8               	movwf	light@l2
  3768  0C07  00B9               	movwf	light@l2+1
  3769  0C08  3001               	movlw	1
  3770  0C09  00BA               	movwf	light@l1
  3771  0C0A  3000               	movlw	0
  3772  0C0B  00BB               	movwf	light@l1+1
  3773  0C0C  0141               	movlb	1	; select bank1
  3774  0C0D  085D               	movf	(main@dotDelay+1)^(0+128),w
  3775  0C0E  0140               	movlb	0	; select bank0
  3776  0C0F  00BD               	movwf	light@d+1
  3777  0C10  0141               	movlb	1	; select bank1
  3778  0C11  085C               	movf	main@dotDelay^(0+128),w
  3779  0C12  0140               	movlb	0	; select bank0
  3780  0C13  00BC               	movwf	light@d
  3781  0C14  318A  223F  318B   	fcall	_light
  3782                           
  3783                           ;main.c: 254: light(0,0,0,0,0,0,0,spaceDelay);
  3784  0C17  3000               	movlw	0
  3785  0C18  0140               	movlb	0	; select bank0
  3786  0C19  00AE               	movwf	light@l7
  3787  0C1A  00AF               	movwf	light@l7+1
  3788  0C1B  3000               	movlw	0
  3789  0C1C  00B0               	movwf	light@l6
  3790  0C1D  00B1               	movwf	light@l6+1
  3791  0C1E  3000               	movlw	0
  3792  0C1F  00B2               	movwf	light@l5
  3793  0C20  00B3               	movwf	light@l5+1
  3794  0C21  3000               	movlw	0
  3795  0C22  00B4               	movwf	light@l4
  3796  0C23  00B5               	movwf	light@l4+1
  3797  0C24  3000               	movlw	0
  3798  0C25  00B6               	movwf	light@l3
  3799  0C26  00B7               	movwf	light@l3+1
  3800  0C27  3000               	movlw	0
  3801  0C28  00B8               	movwf	light@l2
  3802  0C29  00B9               	movwf	light@l2+1
  3803  0C2A  3000               	movlw	0
  3804  0C2B  00BA               	movwf	light@l1
  3805  0C2C  00BB               	movwf	light@l1+1
  3806  0C2D  0141               	movlb	1	; select bank1
  3807  0C2E  085B               	movf	(main@spaceDelay+1)^(0+128),w
  3808  0C2F  0140               	movlb	0	; select bank0
  3809  0C30  00BD               	movwf	light@d+1
  3810  0C31  0141               	movlb	1	; select bank1
  3811  0C32  085A               	movf	main@spaceDelay^(0+128),w
  3812  0C33  0140               	movlb	0	; select bank0
  3813  0C34  00BC               	movwf	light@d
  3814  0C35  318A  223F  318B   	fcall	_light
  3815                           
  3816                           ;main.c: 255: light(1,1,1,1,1,1,1,dotDelay);
  3817  0C38  3001               	movlw	1
  3818  0C39  0140               	movlb	0	; select bank0
  3819  0C3A  00AE               	movwf	light@l7
  3820  0C3B  3000               	movlw	0
  3821  0C3C  00AF               	movwf	light@l7+1
  3822  0C3D  3001               	movlw	1
  3823  0C3E  00B0               	movwf	light@l6
  3824  0C3F  3000               	movlw	0
  3825  0C40  00B1               	movwf	light@l6+1
  3826  0C41  3001               	movlw	1
  3827  0C42  00B2               	movwf	light@l5
  3828  0C43  3000               	movlw	0
  3829  0C44  00B3               	movwf	light@l5+1
  3830  0C45  3001               	movlw	1
  3831  0C46  00B4               	movwf	light@l4
  3832  0C47  3000               	movlw	0
  3833  0C48  00B5               	movwf	light@l4+1
  3834  0C49  3001               	movlw	1
  3835  0C4A  00B6               	movwf	light@l3
  3836  0C4B  3000               	movlw	0
  3837  0C4C  00B7               	movwf	light@l3+1
  3838  0C4D  3001               	movlw	1
  3839  0C4E  00B8               	movwf	light@l2
  3840  0C4F  3000               	movlw	0
  3841  0C50  00B9               	movwf	light@l2+1
  3842  0C51  3001               	movlw	1
  3843  0C52  00BA               	movwf	light@l1
  3844  0C53  3000               	movlw	0
  3845  0C54  00BB               	movwf	light@l1+1
  3846  0C55  0141               	movlb	1	; select bank1
  3847  0C56  085D               	movf	(main@dotDelay+1)^(0+128),w
  3848  0C57  0140               	movlb	0	; select bank0
  3849  0C58  00BD               	movwf	light@d+1
  3850  0C59  0141               	movlb	1	; select bank1
  3851  0C5A  085C               	movf	main@dotDelay^(0+128),w
  3852  0C5B  0140               	movlb	0	; select bank0
  3853  0C5C  00BC               	movwf	light@d
  3854  0C5D  318A  223F         	fcall	_light
  3855                           
  3856                           ;main.c: 256: light(1,0,0,1,0,0,1,dotDelay);
  3857  0C5F  3001               	movlw	1
  3858  0C60  3180  2864         	ljmp	L14
  3859                           
  3860                           	psect	maintext_split_6
  3861  0064                     L14:	
  3862  0064  0140               	movlb	0	; select bank0
  3863  0065  00AE               	movwf	light@l7
  3864  0066  3000               	movlw	0
  3865  0067  00AF               	movwf	light@l7+1
  3866  0068  3000               	movlw	0
  3867  0069  00B0               	movwf	light@l6
  3868  006A  00B1               	movwf	light@l6+1
  3869  006B  3000               	movlw	0
  3870  006C  00B2               	movwf	light@l5
  3871  006D  00B3               	movwf	light@l5+1
  3872  006E  3001               	movlw	1
  3873  006F  00B4               	movwf	light@l4
  3874  0070  3000               	movlw	0
  3875  0071  00B5               	movwf	light@l4+1
  3876  0072  3000               	movlw	0
  3877  0073  00B6               	movwf	light@l3
  3878  0074  00B7               	movwf	light@l3+1
  3879  0075  3000               	movlw	0
  3880  0076  00B8               	movwf	light@l2
  3881  0077  00B9               	movwf	light@l2+1
  3882  0078  3001               	movlw	1
  3883  0079  00BA               	movwf	light@l1
  3884  007A  3000               	movlw	0
  3885  007B  00BB               	movwf	light@l1+1
  3886  007C  0141               	movlb	1	; select bank1
  3887  007D  085D               	movf	(main@dotDelay+1)^(0+128),w
  3888  007E  0140               	movlb	0	; select bank0
  3889  007F  00BD               	movwf	light@d+1
  3890  0080  0141               	movlb	1	; select bank1
  3891  0081  085C               	movf	main@dotDelay^(0+128),w
  3892  0082  0140               	movlb	0	; select bank0
  3893  0083  00BC               	movwf	light@d
  3894  0084  318A  223F  3180   	fcall	_light
  3895                           
  3896                           ;main.c: 257: light(1,0,0,1,0,0,1,dotDelay);
  3897  0087  3001               	movlw	1
  3898  0088  0140               	movlb	0	; select bank0
  3899  0089  00AE               	movwf	light@l7
  3900  008A  3000               	movlw	0
  3901  008B  00AF               	movwf	light@l7+1
  3902  008C  3000               	movlw	0
  3903  008D  00B0               	movwf	light@l6
  3904  008E  00B1               	movwf	light@l6+1
  3905  008F  3000               	movlw	0
  3906  0090  00B2               	movwf	light@l5
  3907  0091  00B3               	movwf	light@l5+1
  3908  0092  3001               	movlw	1
  3909  0093  00B4               	movwf	light@l4
  3910  0094  3000               	movlw	0
  3911  0095  00B5               	movwf	light@l4+1
  3912  0096  3000               	movlw	0
  3913  0097  00B6               	movwf	light@l3
  3914  0098  00B7               	movwf	light@l3+1
  3915  0099  3000               	movlw	0
  3916  009A  00B8               	movwf	light@l2
  3917  009B  00B9               	movwf	light@l2+1
  3918  009C  3001               	movlw	1
  3919  009D  00BA               	movwf	light@l1
  3920  009E  3000               	movlw	0
  3921  009F  00BB               	movwf	light@l1+1
  3922  00A0  0141               	movlb	1	; select bank1
  3923  00A1  085D               	movf	(main@dotDelay+1)^(0+128),w
  3924  00A2  0140               	movlb	0	; select bank0
  3925  00A3  00BD               	movwf	light@d+1
  3926  00A4  0141               	movlb	1	; select bank1
  3927  00A5  085C               	movf	main@dotDelay^(0+128),w
  3928  00A6  0140               	movlb	0	; select bank0
  3929  00A7  00BC               	movwf	light@d
  3930  00A8  318A  223F  3180   	fcall	_light
  3931                           
  3932                           ;main.c: 258: light(1,0,0,1,0,0,1,dotDelay);
  3933  00AB  3001               	movlw	1
  3934  00AC  0140               	movlb	0	; select bank0
  3935  00AD  00AE               	movwf	light@l7
  3936  00AE  3000               	movlw	0
  3937  00AF  00AF               	movwf	light@l7+1
  3938  00B0  3000               	movlw	0
  3939  00B1  00B0               	movwf	light@l6
  3940  00B2  00B1               	movwf	light@l6+1
  3941  00B3  3000               	movlw	0
  3942  00B4  00B2               	movwf	light@l5
  3943  00B5  00B3               	movwf	light@l5+1
  3944  00B6  3001               	movlw	1
  3945  00B7  00B4               	movwf	light@l4
  3946  00B8  3000               	movlw	0
  3947  00B9  00B5               	movwf	light@l4+1
  3948  00BA  3000               	movlw	0
  3949  00BB  00B6               	movwf	light@l3
  3950  00BC  00B7               	movwf	light@l3+1
  3951  00BD  3000               	movlw	0
  3952  00BE  00B8               	movwf	light@l2
  3953  00BF  00B9               	movwf	light@l2+1
  3954  00C0  3001               	movlw	1
  3955  00C1  00BA               	movwf	light@l1
  3956  00C2  3000               	movlw	0
  3957  00C3  00BB               	movwf	light@l1+1
  3958  00C4  0141               	movlb	1	; select bank1
  3959  00C5  085D               	movf	(main@dotDelay+1)^(0+128),w
  3960  00C6  0140               	movlb	0	; select bank0
  3961  00C7  00BD               	movwf	light@d+1
  3962  00C8  0141               	movlb	1	; select bank1
  3963  00C9  085C               	movf	main@dotDelay^(0+128),w
  3964  00CA  0140               	movlb	0	; select bank0
  3965  00CB  00BC               	movwf	light@d
  3966  00CC  318A  223F  3180   	fcall	_light
  3967                           
  3968                           ;main.c: 259: light(0,1,1,0,1,1,0,dotDelay);
  3969  00CF  3000               	movlw	0
  3970  00D0  0140               	movlb	0	; select bank0
  3971  00D1  00AE               	movwf	light@l7
  3972  00D2  00AF               	movwf	light@l7+1
  3973  00D3  3001               	movlw	1
  3974  00D4  00B0               	movwf	light@l6
  3975  00D5  3000               	movlw	0
  3976  00D6  00B1               	movwf	light@l6+1
  3977  00D7  3001               	movlw	1
  3978  00D8  00B2               	movwf	light@l5
  3979  00D9  3000               	movlw	0
  3980  00DA  00B3               	movwf	light@l5+1
  3981  00DB  3000               	movlw	0
  3982  00DC  00B4               	movwf	light@l4
  3983  00DD  00B5               	movwf	light@l4+1
  3984  00DE  3001               	movlw	1
  3985  00DF  00B6               	movwf	light@l3
  3986  00E0  3000               	movlw	0
  3987  00E1  00B7               	movwf	light@l3+1
  3988  00E2  3001               	movlw	1
  3989  00E3  00B8               	movwf	light@l2
  3990  00E4  3000               	movlw	0
  3991  00E5  00B9               	movwf	light@l2+1
  3992  00E6  3000               	movlw	0
  3993  00E7  00BA               	movwf	light@l1
  3994  00E8  00BB               	movwf	light@l1+1
  3995  00E9  0141               	movlb	1	; select bank1
  3996  00EA  085D               	movf	(main@dotDelay+1)^(0+128),w
  3997  00EB  0140               	movlb	0	; select bank0
  3998  00EC  00BD               	movwf	light@d+1
  3999  00ED  0141               	movlb	1	; select bank1
  4000  00EE  085C               	movf	main@dotDelay^(0+128),w
  4001  00EF  0140               	movlb	0	; select bank0
  4002  00F0  00BC               	movwf	light@d
  4003  00F1  318A  223F  3180   	fcall	_light
  4004                           
  4005                           ;main.c: 260: light(0,0,0,0,0,0,0,spaceDelay);
  4006  00F4  3000               	movlw	0
  4007  00F5  0140               	movlb	0	; select bank0
  4008  00F6  00AE               	movwf	light@l7
  4009  00F7  00AF               	movwf	light@l7+1
  4010  00F8  3000               	movlw	0
  4011  00F9  00B0               	movwf	light@l6
  4012  00FA  00B1               	movwf	light@l6+1
  4013  00FB  3000               	movlw	0
  4014  00FC  00B2               	movwf	light@l5
  4015  00FD  00B3               	movwf	light@l5+1
  4016  00FE  3000               	movlw	0
  4017  00FF  00B4               	movwf	light@l4
  4018  0100  00B5               	movwf	light@l4+1
  4019  0101  3000               	movlw	0
  4020  0102  00B6               	movwf	light@l3
  4021  0103  00B7               	movwf	light@l3+1
  4022  0104  3000               	movlw	0
  4023  0105  00B8               	movwf	light@l2
  4024  0106  00B9               	movwf	light@l2+1
  4025  0107  3000               	movlw	0
  4026  0108  00BA               	movwf	light@l1
  4027  0109  00BB               	movwf	light@l1+1
  4028  010A  0141               	movlb	1	; select bank1
  4029  010B  085B               	movf	(main@spaceDelay+1)^(0+128),w
  4030  010C  0140               	movlb	0	; select bank0
  4031  010D  00BD               	movwf	light@d+1
  4032  010E  0141               	movlb	1	; select bank1
  4033  010F  085A               	movf	main@spaceDelay^(0+128),w
  4034  0110  0140               	movlb	0	; select bank0
  4035  0111  00BC               	movwf	light@d
  4036  0112  318A  223F  3180   	fcall	_light
  4037                           
  4038                           ;main.c: 261: light(1,1,1,1,1,1,1,dotDelay);
  4039  0115  3001               	movlw	1
  4040  0116  0140               	movlb	0	; select bank0
  4041  0117  00AE               	movwf	light@l7
  4042  0118  3000               	movlw	0
  4043  0119  00AF               	movwf	light@l7+1
  4044  011A  3001               	movlw	1
  4045  011B  00B0               	movwf	light@l6
  4046  011C  3000               	movlw	0
  4047  011D  00B1               	movwf	light@l6+1
  4048  011E  3001               	movlw	1
  4049  011F  00B2               	movwf	light@l5
  4050  0120  3000               	movlw	0
  4051  0121  00B3               	movwf	light@l5+1
  4052  0122  3001               	movlw	1
  4053  0123  00B4               	movwf	light@l4
  4054  0124  3000               	movlw	0
  4055  0125  00B5               	movwf	light@l4+1
  4056  0126  3001               	movlw	1
  4057  0127  00B6               	movwf	light@l3
  4058  0128  3000               	movlw	0
  4059  0129  00B7               	movwf	light@l3+1
  4060  012A  3001               	movlw	1
  4061  012B  00B8               	movwf	light@l2
  4062  012C  3000               	movlw	0
  4063  012D  00B9               	movwf	light@l2+1
  4064  012E  3001               	movlw	1
  4065  012F  00BA               	movwf	light@l1
  4066  0130  3000               	movlw	0
  4067  0131  00BB               	movwf	light@l1+1
  4068  0132  0141               	movlb	1	; select bank1
  4069  0133  085D               	movf	(main@dotDelay+1)^(0+128),w
  4070  0134  0140               	movlb	0	; select bank0
  4071  0135  00BD               	movwf	light@d+1
  4072  0136  0141               	movlb	1	; select bank1
  4073  0137  085C               	movf	main@dotDelay^(0+128),w
  4074  0138  0140               	movlb	0	; select bank0
  4075  0139  00BC               	movwf	light@d
  4076  013A  318A  223F  3180   	fcall	_light
  4077                           
  4078                           ;main.c: 262: light(1,0,0,0,0,0,1,dotDelay);
  4079  013D  3001               	movlw	1
  4080  013E  0140               	movlb	0	; select bank0
  4081  013F  00AE               	movwf	light@l7
  4082  0140  3000               	movlw	0
  4083  0141  00AF               	movwf	light@l7+1
  4084  0142  3000               	movlw	0
  4085  0143  00B0               	movwf	light@l6
  4086  0144  00B1               	movwf	light@l6+1
  4087  0145  3000               	movlw	0
  4088  0146  00B2               	movwf	light@l5
  4089  0147  00B3               	movwf	light@l5+1
  4090  0148  3000               	movlw	0
  4091  0149  00B4               	movwf	light@l4
  4092  014A  00B5               	movwf	light@l4+1
  4093  014B  3000               	movlw	0
  4094  014C  00B6               	movwf	light@l3
  4095  014D  00B7               	movwf	light@l3+1
  4096  014E  3000               	movlw	0
  4097  014F  00B8               	movwf	light@l2
  4098  0150  00B9               	movwf	light@l2+1
  4099  0151  3001               	movlw	1
  4100  0152  00BA               	movwf	light@l1
  4101  0153  3000               	movlw	0
  4102  0154  00BB               	movwf	light@l1+1
  4103  0155  0141               	movlb	1	; select bank1
  4104  0156  085D               	movf	(main@dotDelay+1)^(0+128),w
  4105  0157  0140               	movlb	0	; select bank0
  4106  0158  00BD               	movwf	light@d+1
  4107  0159  0141               	movlb	1	; select bank1
  4108  015A  085C               	movf	main@dotDelay^(0+128),w
  4109  015B  0140               	movlb	0	; select bank0
  4110  015C  00BC               	movwf	light@d
  4111  015D  318A  223F  3180   	fcall	_light
  4112                           
  4113                           ;main.c: 263: light(1,0,0,0,0,0,1,dotDelay);
  4114  0160  3001               	movlw	1
  4115  0161  0140               	movlb	0	; select bank0
  4116  0162  00AE               	movwf	light@l7
  4117  0163  3000               	movlw	0
  4118  0164  00AF               	movwf	light@l7+1
  4119  0165  3000               	movlw	0
  4120  0166  00B0               	movwf	light@l6
  4121  0167  00B1               	movwf	light@l6+1
  4122  0168  3000               	movlw	0
  4123  0169  00B2               	movwf	light@l5
  4124  016A  00B3               	movwf	light@l5+1
  4125  016B  3000               	movlw	0
  4126  016C  00B4               	movwf	light@l4
  4127  016D  00B5               	movwf	light@l4+1
  4128  016E  3000               	movlw	0
  4129  016F  00B6               	movwf	light@l3
  4130  0170  00B7               	movwf	light@l3+1
  4131  0171  3000               	movlw	0
  4132  0172  00B8               	movwf	light@l2
  4133  0173  00B9               	movwf	light@l2+1
  4134  0174  3001               	movlw	1
  4135  0175  00BA               	movwf	light@l1
  4136  0176  3000               	movlw	0
  4137  0177  00BB               	movwf	light@l1+1
  4138  0178  0141               	movlb	1	; select bank1
  4139  0179  085D               	movf	(main@dotDelay+1)^(0+128),w
  4140  017A  0140               	movlb	0	; select bank0
  4141  017B  00BD               	movwf	light@d+1
  4142  017C  0141               	movlb	1	; select bank1
  4143  017D  085C               	movf	main@dotDelay^(0+128),w
  4144  017E  0140               	movlb	0	; select bank0
  4145  017F  00BC               	movwf	light@d
  4146  0180  318A  223F  3180   	fcall	_light
  4147                           
  4148                           ;main.c: 264: light(1,0,0,0,0,0,1,dotDelay);
  4149  0183  3001               	movlw	1
  4150  0184  0140               	movlb	0	; select bank0
  4151  0185  00AE               	movwf	light@l7
  4152  0186  3000               	movlw	0
  4153  0187  00AF               	movwf	light@l7+1
  4154  0188  3000               	movlw	0
  4155  0189  00B0               	movwf	light@l6
  4156  018A  00B1               	movwf	light@l6+1
  4157  018B  3000               	movlw	0
  4158  018C  00B2               	movwf	light@l5
  4159  018D  00B3               	movwf	light@l5+1
  4160  018E  3000               	movlw	0
  4161  018F  00B4               	movwf	light@l4
  4162  0190  00B5               	movwf	light@l4+1
  4163  0191  3000               	movlw	0
  4164  0192  00B6               	movwf	light@l3
  4165  0193  00B7               	movwf	light@l3+1
  4166  0194  3000               	movlw	0
  4167  0195  00B8               	movwf	light@l2
  4168  0196  00B9               	movwf	light@l2+1
  4169  0197  3001               	movlw	1
  4170  0198  00BA               	movwf	light@l1
  4171  0199  3000               	movlw	0
  4172  019A  00BB               	movwf	light@l1+1
  4173  019B  0141               	movlb	1	; select bank1
  4174  019C  085D               	movf	(main@dotDelay+1)^(0+128),w
  4175  019D  0140               	movlb	0	; select bank0
  4176  019E  00BD               	movwf	light@d+1
  4177  019F  0141               	movlb	1	; select bank1
  4178  01A0  085C               	movf	main@dotDelay^(0+128),w
  4179  01A1  0140               	movlb	0	; select bank0
  4180  01A2  00BC               	movwf	light@d
  4181  01A3  318A  223F  3180   	fcall	_light
  4182                           
  4183                           ;main.c: 265: light(1,1,1,1,1,1,1,dotDelay);
  4184  01A6  3001               	movlw	1
  4185  01A7  0140               	movlb	0	; select bank0
  4186  01A8  00AE               	movwf	light@l7
  4187  01A9  3000               	movlw	0
  4188  01AA  00AF               	movwf	light@l7+1
  4189  01AB  3001               	movlw	1
  4190  01AC  00B0               	movwf	light@l6
  4191  01AD  3000               	movlw	0
  4192  01AE  00B1               	movwf	light@l6+1
  4193  01AF  3001               	movlw	1
  4194  01B0  00B2               	movwf	light@l5
  4195  01B1  3000               	movlw	0
  4196  01B2  00B3               	movwf	light@l5+1
  4197  01B3  3001               	movlw	1
  4198  01B4  00B4               	movwf	light@l4
  4199  01B5  3000               	movlw	0
  4200  01B6  00B5               	movwf	light@l4+1
  4201  01B7  3001               	movlw	1
  4202  01B8  00B6               	movwf	light@l3
  4203  01B9  3000               	movlw	0
  4204  01BA  00B7               	movwf	light@l3+1
  4205  01BB  3001               	movlw	1
  4206  01BC  00B8               	movwf	light@l2
  4207  01BD  3000               	movlw	0
  4208  01BE  00B9               	movwf	light@l2+1
  4209  01BF  3001               	movlw	1
  4210  01C0  00BA               	movwf	light@l1
  4211  01C1  3000               	movlw	0
  4212  01C2  00BB               	movwf	light@l1+1
  4213  01C3  0141               	movlb	1	; select bank1
  4214  01C4  085D               	movf	(main@dotDelay+1)^(0+128),w
  4215  01C5  0140               	movlb	0	; select bank0
  4216  01C6  00BD               	movwf	light@d+1
  4217  01C7  0141               	movlb	1	; select bank1
  4218  01C8  085C               	movf	main@dotDelay^(0+128),w
  4219  01C9  0140               	movlb	0	; select bank0
  4220  01CA  00BC               	movwf	light@d
  4221  01CB  318A  223F  3180   	fcall	_light
  4222                           
  4223                           ;main.c: 266: light(0,0,0,0,0,0,0,spaceDelay);
  4224  01CE  3000               	movlw	0
  4225  01CF  0140               	movlb	0	; select bank0
  4226  01D0  00AE               	movwf	light@l7
  4227  01D1  00AF               	movwf	light@l7+1
  4228  01D2  3000               	movlw	0
  4229  01D3  00B0               	movwf	light@l6
  4230  01D4  00B1               	movwf	light@l6+1
  4231  01D5  3000               	movlw	0
  4232  01D6  00B2               	movwf	light@l5
  4233  01D7  00B3               	movwf	light@l5+1
  4234  01D8  3000               	movlw	0
  4235  01D9  00B4               	movwf	light@l4
  4236  01DA  00B5               	movwf	light@l4+1
  4237  01DB  3000               	movlw	0
  4238  01DC  00B6               	movwf	light@l3
  4239  01DD  00B7               	movwf	light@l3+1
  4240  01DE  3000               	movlw	0
  4241  01DF  00B8               	movwf	light@l2
  4242  01E0  00B9               	movwf	light@l2+1
  4243  01E1  3000               	movlw	0
  4244  01E2  00BA               	movwf	light@l1
  4245  01E3  00BB               	movwf	light@l1+1
  4246  01E4  0141               	movlb	1	; select bank1
  4247  01E5  085B               	movf	(main@spaceDelay+1)^(0+128),w
  4248  01E6  0140               	movlb	0	; select bank0
  4249  01E7  00BD               	movwf	light@d+1
  4250  01E8  0141               	movlb	1	; select bank1
  4251  01E9  085A               	movf	main@spaceDelay^(0+128),w
  4252  01EA  0140               	movlb	0	; select bank0
  4253  01EB  00BC               	movwf	light@d
  4254  01EC  318A  223F  3180   	fcall	_light
  4255                           
  4256                           ;main.c: 267: light(1,1,1,1,1,1,1,dotDelay);
  4257  01EF  3001               	movlw	1
  4258  01F0  0140               	movlb	0	; select bank0
  4259  01F1  00AE               	movwf	light@l7
  4260  01F2  3000               	movlw	0
  4261  01F3  00AF               	movwf	light@l7+1
  4262  01F4  3001               	movlw	1
  4263  01F5  00B0               	movwf	light@l6
  4264  01F6  3000               	movlw	0
  4265  01F7  00B1               	movwf	light@l6+1
  4266  01F8  3001               	movlw	1
  4267  01F9  00B2               	movwf	light@l5
  4268  01FA  3000               	movlw	0
  4269  01FB  00B3               	movwf	light@l5+1
  4270  01FC  3001               	movlw	1
  4271  01FD  00B4               	movwf	light@l4
  4272  01FE  3000               	movlw	0
  4273  01FF  00B5               	movwf	light@l4+1
  4274  0200  3001               	movlw	1
  4275  0201  00B6               	movwf	light@l3
  4276  0202  3000               	movlw	0
  4277  0203  00B7               	movwf	light@l3+1
  4278  0204  3001               	movlw	1
  4279  0205  00B8               	movwf	light@l2
  4280  0206  3000               	movlw	0
  4281  0207  00B9               	movwf	light@l2+1
  4282  0208  3001               	movlw	1
  4283  0209  00BA               	movwf	light@l1
  4284  020A  3000               	movlw	0
  4285  020B  00BB               	movwf	light@l1+1
  4286  020C  0141               	movlb	1	; select bank1
  4287  020D  085D               	movf	(main@dotDelay+1)^(0+128),w
  4288  020E  0140               	movlb	0	; select bank0
  4289  020F  00BD               	movwf	light@d+1
  4290  0210  0141               	movlb	1	; select bank1
  4291  0211  085C               	movf	main@dotDelay^(0+128),w
  4292  0212  0140               	movlb	0	; select bank0
  4293  0213  00BC               	movwf	light@d
  4294  0214  318A  223F  3180   	fcall	_light
  4295                           
  4296                           ;main.c: 268: light(0,1,1,0,0,0,1,dotDelay);
  4297  0217  3000               	movlw	0
  4298  0218  0140               	movlb	0	; select bank0
  4299  0219  00AE               	movwf	light@l7
  4300  021A  00AF               	movwf	light@l7+1
  4301  021B  3001               	movlw	1
  4302  021C  00B0               	movwf	light@l6
  4303  021D  3000               	movlw	0
  4304  021E  00B1               	movwf	light@l6+1
  4305  021F  3001               	movlw	1
  4306  0220  00B2               	movwf	light@l5
  4307  0221  3000               	movlw	0
  4308  0222  00B3               	movwf	light@l5+1
  4309  0223  3000               	movlw	0
  4310  0224  00B4               	movwf	light@l4
  4311  0225  00B5               	movwf	light@l4+1
  4312  0226  3000               	movlw	0
  4313  0227  00B6               	movwf	light@l3
  4314  0228  00B7               	movwf	light@l3+1
  4315  0229  3000               	movlw	0
  4316  022A  00B8               	movwf	light@l2
  4317  022B  00B9               	movwf	light@l2+1
  4318  022C  3001               	movlw	1
  4319  022D  00BA               	movwf	light@l1
  4320  022E  3000               	movlw	0
  4321  022F  00BB               	movwf	light@l1+1
  4322  0230  0141               	movlb	1	; select bank1
  4323  0231  085D               	movf	(main@dotDelay+1)^(0+128),w
  4324  0232  0140               	movlb	0	; select bank0
  4325  0233  00BD               	movwf	light@d+1
  4326  0234  0141               	movlb	1	; select bank1
  4327  0235  085C               	movf	main@dotDelay^(0+128),w
  4328  0236  0140               	movlb	0	; select bank0
  4329  0237  00BC               	movwf	light@d
  4330  0238  318A  223F  3180   	fcall	_light
  4331                           
  4332                           ;main.c: 269: light(0,0,0,1,0,0,0,dotDelay);
  4333  023B  3000               	movlw	0
  4334  023C  0140               	movlb	0	; select bank0
  4335  023D  00AE               	movwf	light@l7
  4336  023E  00AF               	movwf	light@l7+1
  4337  023F  3000               	movlw	0
  4338  0240  00B0               	movwf	light@l6
  4339  0241  00B1               	movwf	light@l6+1
  4340  0242  3000               	movlw	0
  4341  0243  00B2               	movwf	light@l5
  4342  0244  00B3               	movwf	light@l5+1
  4343  0245  3001               	movlw	1
  4344  0246  00B4               	movwf	light@l4
  4345  0247  3000               	movlw	0
  4346  0248  00B5               	movwf	light@l4+1
  4347  0249  3000               	movlw	0
  4348  024A  00B6               	movwf	light@l3
  4349  024B  00B7               	movwf	light@l3+1
  4350  024C  3000               	movlw	0
  4351  024D  00B8               	movwf	light@l2
  4352  024E  00B9               	movwf	light@l2+1
  4353  024F  3000               	movlw	0
  4354  0250  00BA               	movwf	light@l1
  4355  0251  00BB               	movwf	light@l1+1
  4356  0252  0141               	movlb	1	; select bank1
  4357  0253  085D               	movf	(main@dotDelay+1)^(0+128),w
  4358  0254  0140               	movlb	0	; select bank0
  4359  0255  00BD               	movwf	light@d+1
  4360  0256  0141               	movlb	1	; select bank1
  4361  0257  085C               	movf	main@dotDelay^(0+128),w
  4362  0258  0140               	movlb	0	; select bank0
  4363  0259  00BC               	movwf	light@d
  4364  025A  318A  223F  3180   	fcall	_light
  4365                           
  4366                           ;main.c: 270: light(0,0,0,0,1,1,0,dotDelay);
  4367  025D  3000               	movlw	0
  4368  025E  0140               	movlb	0	; select bank0
  4369  025F  00AE               	movwf	light@l7
  4370  0260  00AF               	movwf	light@l7+1
  4371  0261  3000               	movlw	0
  4372  0262  00B0               	movwf	light@l6
  4373  0263  00B1               	movwf	light@l6+1
  4374  0264  3000               	movlw	0
  4375  0265  00B2               	movwf	light@l5
  4376  0266  00B3               	movwf	light@l5+1
  4377  0267  3000               	movlw	0
  4378  0268  00B4               	movwf	light@l4
  4379  0269  00B5               	movwf	light@l4+1
  4380  026A  3001               	movlw	1
  4381  026B  00B6               	movwf	light@l3
  4382  026C  3000               	movlw	0
  4383  026D  00B7               	movwf	light@l3+1
  4384  026E  3001               	movlw	1
  4385  026F  00B8               	movwf	light@l2
  4386  0270  3000               	movlw	0
  4387  0271  00B9               	movwf	light@l2+1
  4388  0272  3000               	movlw	0
  4389  0273  00BA               	movwf	light@l1
  4390  0274  00BB               	movwf	light@l1+1
  4391  0275  0141               	movlb	1	; select bank1
  4392  0276  085D               	movf	(main@dotDelay+1)^(0+128),w
  4393  0277  0140               	movlb	0	; select bank0
  4394  0278  00BD               	movwf	light@d+1
  4395  0279  0141               	movlb	1	; select bank1
  4396  027A  085C               	movf	main@dotDelay^(0+128),w
  4397  027B  0140               	movlb	0	; select bank0
  4398  027C  00BC               	movwf	light@d
  4399  027D  318A  223F  3180   	fcall	_light
  4400                           
  4401                           ;main.c: 271: light(1,1,1,1,1,1,1,dotDelay);
  4402  0280  3001               	movlw	1
  4403  0281  0140               	movlb	0	; select bank0
  4404  0282  00AE               	movwf	light@l7
  4405  0283  3000               	movlw	0
  4406  0284  00AF               	movwf	light@l7+1
  4407  0285  3001               	movlw	1
  4408  0286  00B0               	movwf	light@l6
  4409  0287  3000               	movlw	0
  4410  0288  00B1               	movwf	light@l6+1
  4411  0289  3001               	movlw	1
  4412  028A  00B2               	movwf	light@l5
  4413  028B  3000               	movlw	0
  4414  028C  00B3               	movwf	light@l5+1
  4415  028D  3001               	movlw	1
  4416  028E  00B4               	movwf	light@l4
  4417  028F  3000               	movlw	0
  4418  0290  00B5               	movwf	light@l4+1
  4419  0291  3001               	movlw	1
  4420  0292  00B6               	movwf	light@l3
  4421  0293  3000               	movlw	0
  4422  0294  00B7               	movwf	light@l3+1
  4423  0295  3001               	movlw	1
  4424  0296  00B8               	movwf	light@l2
  4425  0297  3000               	movlw	0
  4426  0298  00B9               	movwf	light@l2+1
  4427  0299  3001               	movlw	1
  4428  029A  00BA               	movwf	light@l1
  4429  029B  3000               	movlw	0
  4430  029C  00BB               	movwf	light@l1+1
  4431  029D  0141               	movlb	1	; select bank1
  4432  029E  085D               	movf	(main@dotDelay+1)^(0+128),w
  4433  029F  0140               	movlb	0	; select bank0
  4434  02A0  00BD               	movwf	light@d+1
  4435  02A1  0141               	movlb	1	; select bank1
  4436  02A2  085C               	movf	main@dotDelay^(0+128),w
  4437  02A3  0140               	movlb	0	; select bank0
  4438  02A4  00BC               	movwf	light@d
  4439  02A5  318A  223F  3180   	fcall	_light
  4440                           
  4441                           ;main.c: 272: light(0,0,0,0,0,0,0,spaceDelay);
  4442  02A8  3000               	movlw	0
  4443  02A9  0140               	movlb	0	; select bank0
  4444  02AA  00AE               	movwf	light@l7
  4445  02AB  00AF               	movwf	light@l7+1
  4446  02AC  3000               	movlw	0
  4447  02AD  00B0               	movwf	light@l6
  4448  02AE  00B1               	movwf	light@l6+1
  4449  02AF  3000               	movlw	0
  4450  02B0  00B2               	movwf	light@l5
  4451  02B1  00B3               	movwf	light@l5+1
  4452  02B2  3000               	movlw	0
  4453  02B3  00B4               	movwf	light@l4
  4454  02B4  00B5               	movwf	light@l4+1
  4455  02B5  3000               	movlw	0
  4456  02B6  00B6               	movwf	light@l3
  4457  02B7  00B7               	movwf	light@l3+1
  4458  02B8  3000               	movlw	0
  4459  02B9  00B8               	movwf	light@l2
  4460  02BA  00B9               	movwf	light@l2+1
  4461  02BB  3000               	movlw	0
  4462  02BC  00BA               	movwf	light@l1
  4463  02BD  00BB               	movwf	light@l1+1
  4464  02BE  0141               	movlb	1	; select bank1
  4465  02BF  085B               	movf	(main@spaceDelay+1)^(0+128),w
  4466  02C0  0140               	movlb	0	; select bank0
  4467  02C1  00BD               	movwf	light@d+1
  4468  02C2  0141               	movlb	1	; select bank1
  4469  02C3  085A               	movf	main@spaceDelay^(0+128),w
  4470  02C4  0140               	movlb	0	; select bank0
  4471  02C5  00BC               	movwf	light@d
  4472  02C6  318A  223F  3180   	fcall	_light
  4473                           
  4474                           ;main.c: 273: light(1,1,1,1,1,1,1,dotDelay);
  4475  02C9  3001               	movlw	1
  4476  02CA  0140               	movlb	0	; select bank0
  4477  02CB  00AE               	movwf	light@l7
  4478  02CC  3000               	movlw	0
  4479  02CD  00AF               	movwf	light@l7+1
  4480  02CE  3001               	movlw	1
  4481  02CF  00B0               	movwf	light@l6
  4482  02D0  3000               	movlw	0
  4483  02D1  00B1               	movwf	light@l6+1
  4484  02D2  3001               	movlw	1
  4485  02D3  00B2               	movwf	light@l5
  4486  02D4  3000               	movlw	0
  4487  02D5  00B3               	movwf	light@l5+1
  4488  02D6  3001               	movlw	1
  4489  02D7  00B4               	movwf	light@l4
  4490  02D8  3000               	movlw	0
  4491  02D9  00B5               	movwf	light@l4+1
  4492  02DA  3001               	movlw	1
  4493  02DB  00B6               	movwf	light@l3
  4494  02DC  3000               	movlw	0
  4495  02DD  00B7               	movwf	light@l3+1
  4496  02DE  3001               	movlw	1
  4497  02DF  00B8               	movwf	light@l2
  4498  02E0  3000               	movlw	0
  4499  02E1  00B9               	movwf	light@l2+1
  4500  02E2  3001               	movlw	1
  4501  02E3  00BA               	movwf	light@l1
  4502  02E4  3000               	movlw	0
  4503  02E5  00BB               	movwf	light@l1+1
  4504  02E6  0141               	movlb	1	; select bank1
  4505  02E7  085D               	movf	(main@dotDelay+1)^(0+128),w
  4506  02E8  0140               	movlb	0	; select bank0
  4507  02E9  00BD               	movwf	light@d+1
  4508  02EA  0141               	movlb	1	; select bank1
  4509  02EB  085C               	movf	main@dotDelay^(0+128),w
  4510  02EC  0140               	movlb	0	; select bank0
  4511  02ED  00BC               	movwf	light@d
  4512  02EE  318A  223F  3180   	fcall	_light
  4513                           
  4514                           ;main.c: 274: light(1,0,0,1,0,0,1,dotDelay);
  4515  02F1  3001               	movlw	1
  4516  02F2  0140               	movlb	0	; select bank0
  4517  02F3  00AE               	movwf	light@l7
  4518  02F4  3000               	movlw	0
  4519  02F5  00AF               	movwf	light@l7+1
  4520  02F6  3000               	movlw	0
  4521  02F7  00B0               	movwf	light@l6
  4522  02F8  00B1               	movwf	light@l6+1
  4523  02F9  3000               	movlw	0
  4524  02FA  00B2               	movwf	light@l5
  4525  02FB  00B3               	movwf	light@l5+1
  4526  02FC  3001               	movlw	1
  4527  02FD  00B4               	movwf	light@l4
  4528  02FE  3000               	movlw	0
  4529  02FF  00B5               	movwf	light@l4+1
  4530  0300  3000               	movlw	0
  4531  0301  00B6               	movwf	light@l3
  4532  0302  00B7               	movwf	light@l3+1
  4533  0303  3000               	movlw	0
  4534  0304  00B8               	movwf	light@l2
  4535  0305  00B9               	movwf	light@l2+1
  4536  0306  3001               	movlw	1
  4537  0307  00BA               	movwf	light@l1
  4538  0308  3000               	movlw	0
  4539  0309  00BB               	movwf	light@l1+1
  4540  030A  0141               	movlb	1	; select bank1
  4541  030B  085D               	movf	(main@dotDelay+1)^(0+128),w
  4542  030C  0140               	movlb	0	; select bank0
  4543  030D  00BD               	movwf	light@d+1
  4544  030E  0141               	movlb	1	; select bank1
  4545  030F  085C               	movf	main@dotDelay^(0+128),w
  4546  0310  0140               	movlb	0	; select bank0
  4547  0311  00BC               	movwf	light@d
  4548  0312  318A  223F  3180   	fcall	_light
  4549                           
  4550                           ;main.c: 275: light(1,0,0,1,0,0,1,dotDelay);
  4551  0315  3001               	movlw	1
  4552  0316  0140               	movlb	0	; select bank0
  4553  0317  00AE               	movwf	light@l7
  4554  0318  3000               	movlw	0
  4555  0319  00AF               	movwf	light@l7+1
  4556  031A  3000               	movlw	0
  4557  031B  00B0               	movwf	light@l6
  4558  031C  00B1               	movwf	light@l6+1
  4559  031D  3000               	movlw	0
  4560  031E  00B2               	movwf	light@l5
  4561  031F  00B3               	movwf	light@l5+1
  4562  0320  3001               	movlw	1
  4563  0321  00B4               	movwf	light@l4
  4564  0322  3000               	movlw	0
  4565  0323  00B5               	movwf	light@l4+1
  4566  0324  3000               	movlw	0
  4567  0325  00B6               	movwf	light@l3
  4568  0326  00B7               	movwf	light@l3+1
  4569  0327  3000               	movlw	0
  4570  0328  00B8               	movwf	light@l2
  4571  0329  00B9               	movwf	light@l2+1
  4572  032A  3001               	movlw	1
  4573  032B  00BA               	movwf	light@l1
  4574  032C  3000               	movlw	0
  4575  032D  00BB               	movwf	light@l1+1
  4576  032E  0141               	movlb	1	; select bank1
  4577  032F  085D               	movf	(main@dotDelay+1)^(0+128),w
  4578  0330  0140               	movlb	0	; select bank0
  4579  0331  00BD               	movwf	light@d+1
  4580  0332  0141               	movlb	1	; select bank1
  4581  0333  085C               	movf	main@dotDelay^(0+128),w
  4582  0334  0140               	movlb	0	; select bank0
  4583  0335  00BC               	movwf	light@d
  4584  0336  318A  223F  3180   	fcall	_light
  4585                           
  4586                           ;main.c: 276: light(1,0,0,1,1,1,1,dotDelay);
  4587  0339  3001               	movlw	1
  4588  033A  0140               	movlb	0	; select bank0
  4589  033B  00AE               	movwf	light@l7
  4590  033C  3000               	movlw	0
  4591  033D  00AF               	movwf	light@l7+1
  4592  033E  3000               	movlw	0
  4593  033F  00B0               	movwf	light@l6
  4594  0340  00B1               	movwf	light@l6+1
  4595  0341  3000               	movlw	0
  4596  0342  00B2               	movwf	light@l5
  4597  0343  00B3               	movwf	light@l5+1
  4598  0344  3001               	movlw	1
  4599  0345  00B4               	movwf	light@l4
  4600  0346  3000               	movlw	0
  4601  0347  00B5               	movwf	light@l4+1
  4602  0348  3001               	movlw	1
  4603  0349  00B6               	movwf	light@l3
  4604  034A  3000               	movlw	0
  4605  034B  00B7               	movwf	light@l3+1
  4606  034C  3001               	movlw	1
  4607  034D  00B8               	movwf	light@l2
  4608  034E  3000               	movlw	0
  4609  034F  00B9               	movwf	light@l2+1
  4610  0350  3001               	movlw	1
  4611  0351  00BA               	movwf	light@l1
  4612  0352  3000               	movlw	0
  4613  0353  00BB               	movwf	light@l1+1
  4614  0354  0141               	movlb	1	; select bank1
  4615  0355  085D               	movf	(main@dotDelay+1)^(0+128),w
  4616  0356  0140               	movlb	0	; select bank0
  4617  0357  00BD               	movwf	light@d+1
  4618  0358  0141               	movlb	1	; select bank1
  4619  0359  085C               	movf	main@dotDelay^(0+128),w
  4620  035A  0140               	movlb	0	; select bank0
  4621  035B  00BC               	movwf	light@d
  4622  035C  318A  223F  3180   	fcall	_light
  4623                           
  4624                           ;main.c: 277: light(1,1,1,1,1,1,1,dotDelay);
  4625  035F  3001               	movlw	1
  4626  0360  0140               	movlb	0	; select bank0
  4627  0361  00AE               	movwf	light@l7
  4628  0362  3000               	movlw	0
  4629  0363  00AF               	movwf	light@l7+1
  4630  0364  3001               	movlw	1
  4631  0365  00B0               	movwf	light@l6
  4632  0366  3000               	movlw	0
  4633  0367  00B1               	movwf	light@l6+1
  4634  0368  3001               	movlw	1
  4635  0369  00B2               	movwf	light@l5
  4636  036A  3000               	movlw	0
  4637  036B  00B3               	movwf	light@l5+1
  4638  036C  3001               	movlw	1
  4639  036D  00B4               	movwf	light@l4
  4640  036E  3000               	movlw	0
  4641  036F  00B5               	movwf	light@l4+1
  4642  0370  3001               	movlw	1
  4643  0371  00B6               	movwf	light@l3
  4644  0372  3000               	movlw	0
  4645  0373  00B7               	movwf	light@l3+1
  4646  0374  3001               	movlw	1
  4647  0375  00B8               	movwf	light@l2
  4648  0376  3000               	movlw	0
  4649  0377  00B9               	movwf	light@l2+1
  4650  0378  3001               	movlw	1
  4651  0379  00BA               	movwf	light@l1
  4652  037A  3000               	movlw	0
  4653  037B  00BB               	movwf	light@l1+1
  4654  037C  0141               	movlb	1	; select bank1
  4655  037D  085D               	movf	(main@dotDelay+1)^(0+128),w
  4656  037E  0140               	movlb	0	; select bank0
  4657  037F  00BD               	movwf	light@d+1
  4658  0380  0141               	movlb	1	; select bank1
  4659  0381  085C               	movf	main@dotDelay^(0+128),w
  4660  0382  0140               	movlb	0	; select bank0
  4661  0383  00BC               	movwf	light@d
  4662  0384  318A  223F  3180   	fcall	_light
  4663                           
  4664                           ;main.c: 278: light(0,0,0,0,0,0,0,spaceDelay);
  4665  0387  3000               	movlw	0
  4666  0388  0140               	movlb	0	; select bank0
  4667  0389  00AE               	movwf	light@l7
  4668  038A  00AF               	movwf	light@l7+1
  4669  038B  3000               	movlw	0
  4670  038C  00B0               	movwf	light@l6
  4671  038D  00B1               	movwf	light@l6+1
  4672  038E  3000               	movlw	0
  4673  038F  00B2               	movwf	light@l5
  4674  0390  00B3               	movwf	light@l5+1
  4675  0391  3000               	movlw	0
  4676  0392  00B4               	movwf	light@l4
  4677  0393  00B5               	movwf	light@l4+1
  4678  0394  3000               	movlw	0
  4679  0395  00B6               	movwf	light@l3
  4680  0396  00B7               	movwf	light@l3+1
  4681  0397  3000               	movlw	0
  4682  0398  00B8               	movwf	light@l2
  4683  0399  00B9               	movwf	light@l2+1
  4684  039A  3000               	movlw	0
  4685  039B  00BA               	movwf	light@l1
  4686  039C  00BB               	movwf	light@l1+1
  4687  039D  0141               	movlb	1	; select bank1
  4688  039E  085B               	movf	(main@spaceDelay+1)^(0+128),w
  4689  039F  0140               	movlb	0	; select bank0
  4690  03A0  00BD               	movwf	light@d+1
  4691  03A1  0141               	movlb	1	; select bank1
  4692  03A2  085A               	movf	main@spaceDelay^(0+128),w
  4693  03A3  0140               	movlb	0	; select bank0
  4694  03A4  00BC               	movwf	light@d
  4695  03A5  318A  223F  3180   	fcall	_light
  4696                           
  4697                           ;main.c: 279: light(1,1,1,1,1,1,1,dotDelay);
  4698  03A8  3001               	movlw	1
  4699  03A9  0140               	movlb	0	; select bank0
  4700  03AA  00AE               	movwf	light@l7
  4701  03AB  3000               	movlw	0
  4702  03AC  00AF               	movwf	light@l7+1
  4703  03AD  3001               	movlw	1
  4704  03AE  00B0               	movwf	light@l6
  4705  03AF  3000               	movlw	0
  4706  03B0  00B1               	movwf	light@l6+1
  4707  03B1  3001               	movlw	1
  4708  03B2  00B2               	movwf	light@l5
  4709  03B3  3000               	movlw	0
  4710  03B4  00B3               	movwf	light@l5+1
  4711  03B5  3001               	movlw	1
  4712  03B6  00B4               	movwf	light@l4
  4713  03B7  3000               	movlw	0
  4714  03B8  00B5               	movwf	light@l4+1
  4715  03B9  3001               	movlw	1
  4716  03BA  00B6               	movwf	light@l3
  4717  03BB  3000               	movlw	0
  4718  03BC  00B7               	movwf	light@l3+1
  4719  03BD  3001               	movlw	1
  4720  03BE  00B8               	movwf	light@l2
  4721  03BF  3000               	movlw	0
  4722  03C0  00B9               	movwf	light@l2+1
  4723  03C1  3001               	movlw	1
  4724  03C2  00BA               	movwf	light@l1
  4725  03C3  3000               	movlw	0
  4726  03C4  00BB               	movwf	light@l1+1
  4727  03C5  0141               	movlb	1	; select bank1
  4728  03C6  085D               	movf	(main@dotDelay+1)^(0+128),w
  4729  03C7  0140               	movlb	0	; select bank0
  4730  03C8  00BD               	movwf	light@d+1
  4731  03C9  0141               	movlb	1	; select bank1
  4732  03CA  085C               	movf	main@dotDelay^(0+128),w
  4733  03CB  0140               	movlb	0	; select bank0
  4734  03CC  00BC               	movwf	light@d
  4735  03CD  318A  223F  3180   	fcall	_light
  4736                           
  4737                           ;main.c: 280: light(1,0,0,1,0,0,1,dotDelay);
  4738  03D0  3001               	movlw	1
  4739  03D1  0140               	movlb	0	; select bank0
  4740  03D2  00AE               	movwf	light@l7
  4741  03D3  3000               	movlw	0
  4742  03D4  00AF               	movwf	light@l7+1
  4743  03D5  3000               	movlw	0
  4744  03D6  00B0               	movwf	light@l6
  4745  03D7  00B1               	movwf	light@l6+1
  4746  03D8  3000               	movlw	0
  4747  03D9  00B2               	movwf	light@l5
  4748  03DA  00B3               	movwf	light@l5+1
  4749  03DB  3001               	movlw	1
  4750  03DC  00B4               	movwf	light@l4
  4751  03DD  3000               	movlw	0
  4752  03DE  00B5               	movwf	light@l4+1
  4753  03DF  3000               	movlw	0
  4754  03E0  00B6               	movwf	light@l3
  4755  03E1  00B7               	movwf	light@l3+1
  4756  03E2  3000               	movlw	0
  4757  03E3  00B8               	movwf	light@l2
  4758  03E4  00B9               	movwf	light@l2+1
  4759  03E5  3001               	movlw	1
  4760  03E6  00BA               	movwf	light@l1
  4761  03E7  3000               	movlw	0
  4762  03E8  00BB               	movwf	light@l1+1
  4763  03E9  0141               	movlb	1	; select bank1
  4764  03EA  085D               	movf	(main@dotDelay+1)^(0+128),w
  4765  03EB  0140               	movlb	0	; select bank0
  4766  03EC  00BD               	movwf	light@d+1
  4767  03ED  0141               	movlb	1	; select bank1
  4768  03EE  085C               	movf	main@dotDelay^(0+128),w
  4769  03EF  0140               	movlb	0	; select bank0
  4770  03F0  00BC               	movwf	light@d
  4771  03F1  318A  223F  3180   	fcall	_light
  4772                           
  4773                           ;main.c: 281: light(1,0,0,1,0,0,1,dotDelay);
  4774  03F4  3001               	movlw	1
  4775  03F5  0140               	movlb	0	; select bank0
  4776  03F6  00AE               	movwf	light@l7
  4777  03F7  3000               	movlw	0
  4778  03F8  00AF               	movwf	light@l7+1
  4779  03F9  3000               	movlw	0
  4780  03FA  00B0               	movwf	light@l6
  4781  03FB  00B1               	movwf	light@l6+1
  4782  03FC  3000               	movlw	0
  4783  03FD  00B2               	movwf	light@l5
  4784  03FE  00B3               	movwf	light@l5+1
  4785  03FF  3001               	movlw	1
  4786  0400  00B4               	movwf	light@l4
  4787  0401  3000               	movlw	0
  4788  0402  00B5               	movwf	light@l4+1
  4789  0403  3000               	movlw	0
  4790  0404  00B6               	movwf	light@l3
  4791  0405  00B7               	movwf	light@l3+1
  4792  0406  3000               	movlw	0
  4793  0407  00B8               	movwf	light@l2
  4794  0408  00B9               	movwf	light@l2+1
  4795  0409  3001               	movlw	1
  4796  040A  00BA               	movwf	light@l1
  4797  040B  3000               	movlw	0
  4798  040C  00BB               	movwf	light@l1+1
  4799  040D  0141               	movlb	1	; select bank1
  4800  040E  085D               	movf	(main@dotDelay+1)^(0+128),w
  4801  040F  0140               	movlb	0	; select bank0
  4802  0410  00BD               	movwf	light@d+1
  4803  0411  0141               	movlb	1	; select bank1
  4804  0412  085C               	movf	main@dotDelay^(0+128),w
  4805  0413  0140               	movlb	0	; select bank0
  4806  0414  00BC               	movwf	light@d
  4807  0415  318A  223F  3180   	fcall	_light
  4808                           
  4809                           ;main.c: 282: light(1,0,0,1,1,1,1,dotDelay);
  4810  0418  3001               	movlw	1
  4811  0419  0140               	movlb	0	; select bank0
  4812  041A  00AE               	movwf	light@l7
  4813  041B  3000               	movlw	0
  4814  041C  00AF               	movwf	light@l7+1
  4815  041D  3000               	movlw	0
  4816  041E  00B0               	movwf	light@l6
  4817  041F  00B1               	movwf	light@l6+1
  4818  0420  3000               	movlw	0
  4819  0421  00B2               	movwf	light@l5
  4820  0422  00B3               	movwf	light@l5+1
  4821  0423  3001               	movlw	1
  4822  0424  00B4               	movwf	light@l4
  4823  0425  3000               	movlw	0
  4824  0426  00B5               	movwf	light@l4+1
  4825  0427  3001               	movlw	1
  4826  0428  00B6               	movwf	light@l3
  4827  0429  3000               	movlw	0
  4828  042A  00B7               	movwf	light@l3+1
  4829  042B  3001               	movlw	1
  4830  042C  00B8               	movwf	light@l2
  4831  042D  3000               	movlw	0
  4832  042E  00B9               	movwf	light@l2+1
  4833  042F  3001               	movlw	1
  4834  0430  00BA               	movwf	light@l1
  4835  0431  3000               	movlw	0
  4836  0432  00BB               	movwf	light@l1+1
  4837  0433  0141               	movlb	1	; select bank1
  4838  0434  085D               	movf	(main@dotDelay+1)^(0+128),w
  4839  0435  0140               	movlb	0	; select bank0
  4840  0436  00BD               	movwf	light@d+1
  4841  0437  0141               	movlb	1	; select bank1
  4842  0438  085C               	movf	main@dotDelay^(0+128),w
  4843  0439  0140               	movlb	0	; select bank0
  4844  043A  00BC               	movwf	light@d
  4845  043B  318A  223F  3180   	fcall	_light
  4846                           
  4847                           ;main.c: 283: light(1,1,1,1,1,1,1,dotDelay);
  4848  043E  3001               	movlw	1
  4849  043F  0140               	movlb	0	; select bank0
  4850  0440  00AE               	movwf	light@l7
  4851  0441  3000               	movlw	0
  4852  0442  00AF               	movwf	light@l7+1
  4853  0443  3001               	movlw	1
  4854  0444  00B0               	movwf	light@l6
  4855  0445  3000               	movlw	0
  4856  0446  00B1               	movwf	light@l6+1
  4857  0447  3001               	movlw	1
  4858  0448  00B2               	movwf	light@l5
  4859  0449  3000               	movlw	0
  4860  044A  00B3               	movwf	light@l5+1
  4861  044B  3001               	movlw	1
  4862  044C  00B4               	movwf	light@l4
  4863  044D  3000               	movlw	0
  4864  044E  00B5               	movwf	light@l4+1
  4865  044F  3001               	movlw	1
  4866  0450  00B6               	movwf	light@l3
  4867  0451  3000               	movlw	0
  4868  0452  00B7               	movwf	light@l3+1
  4869  0453  3001               	movlw	1
  4870  0454  00B8               	movwf	light@l2
  4871  0455  3000               	movlw	0
  4872  0456  00B9               	movwf	light@l2+1
  4873  0457  3001               	movlw	1
  4874  0458  00BA               	movwf	light@l1
  4875  0459  3000               	movlw	0
  4876  045A  00BB               	movwf	light@l1+1
  4877  045B  0141               	movlb	1	; select bank1
  4878  045C  085D               	movf	(main@dotDelay+1)^(0+128),w
  4879  045D  0140               	movlb	0	; select bank0
  4880  045E  00BD               	movwf	light@d+1
  4881  045F  0141               	movlb	1	; select bank1
  4882  0460  085C               	movf	main@dotDelay^(0+128),w
  4883  0461  0140               	movlb	0	; select bank0
  4884  0462  00BC               	movwf	light@d
  4885  0463  318A  223F  3180   	fcall	_light
  4886                           
  4887                           ;main.c: 284: light(0,0,0,0,0,0,0,spaceDelay);
  4888  0466  3000               	movlw	0
  4889  0467  0140               	movlb	0	; select bank0
  4890  0468  00AE               	movwf	light@l7
  4891  0469  00AF               	movwf	light@l7+1
  4892  046A  3000               	movlw	0
  4893  046B  00B0               	movwf	light@l6
  4894  046C  00B1               	movwf	light@l6+1
  4895  046D  3000               	movlw	0
  4896  046E  00B2               	movwf	light@l5
  4897  046F  00B3               	movwf	light@l5+1
  4898  0470  3000               	movlw	0
  4899  0471  00B4               	movwf	light@l4
  4900  0472  00B5               	movwf	light@l4+1
  4901  0473  3000               	movlw	0
  4902  0474  00B6               	movwf	light@l3
  4903  0475  00B7               	movwf	light@l3+1
  4904  0476  3000               	movlw	0
  4905  0477  00B8               	movwf	light@l2
  4906  0478  00B9               	movwf	light@l2+1
  4907  0479  3000               	movlw	0
  4908  047A  00BA               	movwf	light@l1
  4909  047B  00BB               	movwf	light@l1+1
  4910  047C  0141               	movlb	1	; select bank1
  4911  047D  085B               	movf	(main@spaceDelay+1)^(0+128),w
  4912  047E  0140               	movlb	0	; select bank0
  4913  047F  00BD               	movwf	light@d+1
  4914  0480  0141               	movlb	1	; select bank1
  4915  0481  085A               	movf	main@spaceDelay^(0+128),w
  4916  0482  0140               	movlb	0	; select bank0
  4917  0483  00BC               	movwf	light@d
  4918  0484  318A  223F  3180   	fcall	_light
  4919                           
  4920                           ;main.c: 285: light(1,1,1,1,1,1,1,dotDelay);
  4921  0487  3001               	movlw	1
  4922  0488  0140               	movlb	0	; select bank0
  4923  0489  00AE               	movwf	light@l7
  4924  048A  3000               	movlw	0
  4925  048B  00AF               	movwf	light@l7+1
  4926  048C  3001               	movlw	1
  4927  048D  00B0               	movwf	light@l6
  4928  048E  3000               	movlw	0
  4929  048F  00B1               	movwf	light@l6+1
  4930  0490  3001               	movlw	1
  4931  0491  00B2               	movwf	light@l5
  4932  0492  3000               	movlw	0
  4933  0493  00B3               	movwf	light@l5+1
  4934  0494  3001               	movlw	1
  4935  0495  00B4               	movwf	light@l4
  4936  0496  3000               	movlw	0
  4937  0497  00B5               	movwf	light@l4+1
  4938  0498  3001               	movlw	1
  4939  0499  00B6               	movwf	light@l3
  4940  049A  3000               	movlw	0
  4941  049B  00B7               	movwf	light@l3+1
  4942  049C  3001               	movlw	1
  4943  049D  00B8               	movwf	light@l2
  4944  049E  3000               	movlw	0
  4945  049F  00B9               	movwf	light@l2+1
  4946  04A0  3001               	movlw	1
  4947  04A1  00BA               	movwf	light@l1
  4948  04A2  3000               	movlw	0
  4949  04A3  00BB               	movwf	light@l1+1
  4950  04A4  0141               	movlb	1	; select bank1
  4951  04A5  085D               	movf	(main@dotDelay+1)^(0+128),w
  4952  04A6  0140               	movlb	0	; select bank0
  4953  04A7  00BD               	movwf	light@d+1
  4954  04A8  0141               	movlb	1	; select bank1
  4955  04A9  085C               	movf	main@dotDelay^(0+128),w
  4956  04AA  0140               	movlb	0	; select bank0
  4957  04AB  00BC               	movwf	light@d
  4958  04AC  318A  223F  3180   	fcall	_light
  4959                           
  4960                           ;main.c: 286: light(1,0,0,1,0,0,0,dotDelay);
  4961  04AF  3001               	movlw	1
  4962  04B0  0140               	movlb	0	; select bank0
  4963  04B1  00AE               	movwf	light@l7
  4964  04B2  3000               	movlw	0
  4965  04B3  00AF               	movwf	light@l7+1
  4966  04B4  3000               	movlw	0
  4967  04B5  00B0               	movwf	light@l6
  4968  04B6  00B1               	movwf	light@l6+1
  4969  04B7  3000               	movlw	0
  4970  04B8  00B2               	movwf	light@l5
  4971  04B9  00B3               	movwf	light@l5+1
  4972  04BA  3001               	movlw	1
  4973  04BB  00B4               	movwf	light@l4
  4974  04BC  3000               	movlw	0
  4975  04BD  00B5               	movwf	light@l4+1
  4976  04BE  3000               	movlw	0
  4977  04BF  00B6               	movwf	light@l3
  4978  04C0  00B7               	movwf	light@l3+1
  4979  04C1  3000               	movlw	0
  4980  04C2  00B8               	movwf	light@l2
  4981  04C3  00B9               	movwf	light@l2+1
  4982  04C4  3000               	movlw	0
  4983  04C5  00BA               	movwf	light@l1
  4984  04C6  00BB               	movwf	light@l1+1
  4985  04C7  0141               	movlb	1	; select bank1
  4986  04C8  085D               	movf	(main@dotDelay+1)^(0+128),w
  4987  04C9  0140               	movlb	0	; select bank0
  4988  04CA  00BD               	movwf	light@d+1
  4989  04CB  0141               	movlb	1	; select bank1
  4990  04CC  085C               	movf	main@dotDelay^(0+128),w
  4991  04CD  0140               	movlb	0	; select bank0
  4992  04CE  00BC               	movwf	light@d
  4993  04CF  318A  223F  3180   	fcall	_light
  4994                           
  4995                           ;main.c: 287: light(1,0,0,1,0,0,0,dotDelay);
  4996  04D2  3001               	movlw	1
  4997  04D3  0140               	movlb	0	; select bank0
  4998  04D4  00AE               	movwf	light@l7
  4999  04D5  3000               	movlw	0
  5000  04D6  00AF               	movwf	light@l7+1
  5001  04D7  3000               	movlw	0
  5002  04D8  00B0               	movwf	light@l6
  5003  04D9  00B1               	movwf	light@l6+1
  5004  04DA  3000               	movlw	0
  5005  04DB  00B2               	movwf	light@l5
  5006  04DC  00B3               	movwf	light@l5+1
  5007  04DD  3001               	movlw	1
  5008  04DE  00B4               	movwf	light@l4
  5009  04DF  3000               	movlw	0
  5010  04E0  00B5               	movwf	light@l4+1
  5011  04E1  3000               	movlw	0
  5012  04E2  00B6               	movwf	light@l3
  5013  04E3  00B7               	movwf	light@l3+1
  5014  04E4  3000               	movlw	0
  5015  04E5  00B8               	movwf	light@l2
  5016  04E6  00B9               	movwf	light@l2+1
  5017  04E7  3000               	movlw	0
  5018  04E8  00BA               	movwf	light@l1
  5019  04E9  00BB               	movwf	light@l1+1
  5020  04EA  0141               	movlb	1	; select bank1
  5021  04EB  085D               	movf	(main@dotDelay+1)^(0+128),w
  5022  04EC  0140               	movlb	0	; select bank0
  5023  04ED  00BD               	movwf	light@d+1
  5024  04EE  0141               	movlb	1	; select bank1
  5025  04EF  085C               	movf	main@dotDelay^(0+128),w
  5026  04F0  0140               	movlb	0	; select bank0
  5027  04F1  00BC               	movwf	light@d
  5028  04F2  318A  223F  3180   	fcall	_light
  5029                           
  5030                           ;main.c: 288: light(1,0,0,1,0,0,0,dotDelay);
  5031  04F5  3001               	movlw	1
  5032  04F6  0140               	movlb	0	; select bank0
  5033  04F7  00AE               	movwf	light@l7
  5034  04F8  3000               	movlw	0
  5035  04F9  00AF               	movwf	light@l7+1
  5036  04FA  3000               	movlw	0
  5037  04FB  00B0               	movwf	light@l6
  5038  04FC  00B1               	movwf	light@l6+1
  5039  04FD  3000               	movlw	0
  5040  04FE  00B2               	movwf	light@l5
  5041  04FF  00B3               	movwf	light@l5+1
  5042  0500  3001               	movlw	1
  5043  0501  00B4               	movwf	light@l4
  5044  0502  3000               	movlw	0
  5045  0503  00B5               	movwf	light@l4+1
  5046  0504  3000               	movlw	0
  5047  0505  00B6               	movwf	light@l3
  5048  0506  00B7               	movwf	light@l3+1
  5049  0507  3000               	movlw	0
  5050  0508  00B8               	movwf	light@l2
  5051  0509  00B9               	movwf	light@l2+1
  5052  050A  3000               	movlw	0
  5053  050B  00BA               	movwf	light@l1
  5054  050C  00BB               	movwf	light@l1+1
  5055  050D  0141               	movlb	1	; select bank1
  5056  050E  085D               	movf	(main@dotDelay+1)^(0+128),w
  5057  050F  0140               	movlb	0	; select bank0
  5058  0510  00BD               	movwf	light@d+1
  5059  0511  0141               	movlb	1	; select bank1
  5060  0512  085C               	movf	main@dotDelay^(0+128),w
  5061  0513  0140               	movlb	0	; select bank0
  5062  0514  00BC               	movwf	light@d
  5063  0515  318A  223F  3180   	fcall	_light
  5064                           
  5065                           ;main.c: 289: light(1,1,1,1,1,1,1,dotDelay);
  5066  0518  3001               	movlw	1
  5067  0519  0140               	movlb	0	; select bank0
  5068  051A  00AE               	movwf	light@l7
  5069  051B  3000               	movlw	0
  5070  051C  00AF               	movwf	light@l7+1
  5071  051D  3001               	movlw	1
  5072  051E  00B0               	movwf	light@l6
  5073  051F  3000               	movlw	0
  5074  0520  00B1               	movwf	light@l6+1
  5075  0521  3001               	movlw	1
  5076  0522  00B2               	movwf	light@l5
  5077  0523  3000               	movlw	0
  5078  0524  00B3               	movwf	light@l5+1
  5079  0525  3001               	movlw	1
  5080  0526  00B4               	movwf	light@l4
  5081  0527  3000               	movlw	0
  5082  0528  00B5               	movwf	light@l4+1
  5083  0529  3001               	movlw	1
  5084  052A  00B6               	movwf	light@l3
  5085  052B  3000               	movlw	0
  5086  052C  00B7               	movwf	light@l3+1
  5087  052D  3001               	movlw	1
  5088  052E  00B8               	movwf	light@l2
  5089  052F  3000               	movlw	0
  5090  0530  00B9               	movwf	light@l2+1
  5091  0531  3001               	movlw	1
  5092  0532  00BA               	movwf	light@l1
  5093  0533  3000               	movlw	0
  5094  0534  00BB               	movwf	light@l1+1
  5095  0535  0141               	movlb	1	; select bank1
  5096  0536  085D               	movf	(main@dotDelay+1)^(0+128),w
  5097  0537  0140               	movlb	0	; select bank0
  5098  0538  00BD               	movwf	light@d+1
  5099  0539  0141               	movlb	1	; select bank1
  5100  053A  085C               	movf	main@dotDelay^(0+128),w
  5101  053B  0140               	movlb	0	; select bank0
  5102  053C  00BC               	movwf	light@d
  5103  053D  318A  223F  3180   	fcall	_light
  5104                           
  5105                           ;main.c: 290: light(0,0,0,0,0,0,0,spaceDelay);
  5106  0540  3000               	movlw	0
  5107  0541  0140               	movlb	0	; select bank0
  5108  0542  00AE               	movwf	light@l7
  5109  0543  00AF               	movwf	light@l7+1
  5110  0544  3000               	movlw	0
  5111  0545  00B0               	movwf	light@l6
  5112  0546  00B1               	movwf	light@l6+1
  5113  0547  3000               	movlw	0
  5114  0548  00B2               	movwf	light@l5
  5115  0549  00B3               	movwf	light@l5+1
  5116  054A  3000               	movlw	0
  5117  054B  00B4               	movwf	light@l4
  5118  054C  00B5               	movwf	light@l4+1
  5119  054D  3000               	movlw	0
  5120  054E  00B6               	movwf	light@l3
  5121  054F  00B7               	movwf	light@l3+1
  5122  0550  3000               	movlw	0
  5123  0551  00B8               	movwf	light@l2
  5124  0552  00B9               	movwf	light@l2+1
  5125  0553  3000               	movlw	0
  5126  0554  00BA               	movwf	light@l1
  5127  0555  00BB               	movwf	light@l1+1
  5128  0556  0141               	movlb	1	; select bank1
  5129  0557  085B               	movf	(main@spaceDelay+1)^(0+128),w
  5130  0558  0140               	movlb	0	; select bank0
  5131  0559  00BD               	movwf	light@d+1
  5132  055A  0141               	movlb	1	; select bank1
  5133  055B  085A               	movf	main@spaceDelay^(0+128),w
  5134  055C  0140               	movlb	0	; select bank0
  5135  055D  00BC               	movwf	light@d
  5136  055E  318A  223F  3180   	fcall	_light
  5137                           
  5138                           ;main.c: 291: light(1,1,1,1,1,1,1,dotDelay);
  5139  0561  3001               	movlw	1
  5140  0562  0140               	movlb	0	; select bank0
  5141  0563  00AE               	movwf	light@l7
  5142  0564  3000               	movlw	0
  5143  0565  00AF               	movwf	light@l7+1
  5144  0566  3001               	movlw	1
  5145  0567  00B0               	movwf	light@l6
  5146  0568  3000               	movlw	0
  5147  0569  00B1               	movwf	light@l6+1
  5148  056A  3001               	movlw	1
  5149  056B  00B2               	movwf	light@l5
  5150  056C  3000               	movlw	0
  5151  056D  00B3               	movwf	light@l5+1
  5152  056E  3001               	movlw	1
  5153  056F  00B4               	movwf	light@l4
  5154  0570  3000               	movlw	0
  5155  0571  00B5               	movwf	light@l4+1
  5156  0572  3001               	movlw	1
  5157  0573  00B6               	movwf	light@l3
  5158  0574  3000               	movlw	0
  5159  0575  00B7               	movwf	light@l3+1
  5160  0576  3001               	movlw	1
  5161  0577  00B8               	movwf	light@l2
  5162  0578  3000               	movlw	0
  5163  0579  00B9               	movwf	light@l2+1
  5164  057A  3001               	movlw	1
  5165  057B  00BA               	movwf	light@l1
  5166  057C  3000               	movlw	0
  5167  057D  00BB               	movwf	light@l1+1
  5168  057E  0141               	movlb	1	; select bank1
  5169  057F  085D               	movf	(main@dotDelay+1)^(0+128),w
  5170  0580  0140               	movlb	0	; select bank0
  5171  0581  00BD               	movwf	light@d+1
  5172  0582  0141               	movlb	1	; select bank1
  5173  0583  085C               	movf	main@dotDelay^(0+128),w
  5174  0584  0140               	movlb	0	; select bank0
  5175  0585  00BC               	movwf	light@d
  5176  0586  318A  223F  3180   	fcall	_light
  5177                           
  5178                           ;main.c: 292: light(0,1,1,0,0,0,1,dotDelay);
  5179  0589  3000               	movlw	0
  5180  058A  0140               	movlb	0	; select bank0
  5181  058B  00AE               	movwf	light@l7
  5182  058C  00AF               	movwf	light@l7+1
  5183  058D  3001               	movlw	1
  5184  058E  00B0               	movwf	light@l6
  5185  058F  3000               	movlw	0
  5186  0590  00B1               	movwf	light@l6+1
  5187  0591  3001               	movlw	1
  5188  0592  00B2               	movwf	light@l5
  5189  0593  3000               	movlw	0
  5190  0594  00B3               	movwf	light@l5+1
  5191  0595  3000               	movlw	0
  5192  0596  00B4               	movwf	light@l4
  5193  0597  00B5               	movwf	light@l4+1
  5194  0598  3000               	movlw	0
  5195  0599  00B6               	movwf	light@l3
  5196  059A  00B7               	movwf	light@l3+1
  5197  059B  3000               	movlw	0
  5198  059C  00B8               	movwf	light@l2
  5199  059D  00B9               	movwf	light@l2+1
  5200  059E  3001               	movlw	1
  5201  059F  00BA               	movwf	light@l1
  5202  05A0  3000               	movlw	0
  5203  05A1  00BB               	movwf	light@l1+1
  5204  05A2  0141               	movlb	1	; select bank1
  5205  05A3  085D               	movf	(main@dotDelay+1)^(0+128),w
  5206  05A4  0140               	movlb	0	; select bank0
  5207  05A5  00BD               	movwf	light@d+1
  5208  05A6  0141               	movlb	1	; select bank1
  5209  05A7  085C               	movf	main@dotDelay^(0+128),w
  5210  05A8  0140               	movlb	0	; select bank0
  5211  05A9  00BC               	movwf	light@d
  5212  05AA  318A  223F  3180   	fcall	_light
  5213                           
  5214                           ;main.c: 293: light(0,0,0,1,0,0,0,dotDelay);
  5215  05AD  3000               	movlw	0
  5216  05AE  0140               	movlb	0	; select bank0
  5217  05AF  00AE               	movwf	light@l7
  5218  05B0  00AF               	movwf	light@l7+1
  5219  05B1  3000               	movlw	0
  5220  05B2  00B0               	movwf	light@l6
  5221  05B3  00B1               	movwf	light@l6+1
  5222  05B4  3000               	movlw	0
  5223  05B5  00B2               	movwf	light@l5
  5224  05B6  00B3               	movwf	light@l5+1
  5225  05B7  3001               	movlw	1
  5226  05B8  00B4               	movwf	light@l4
  5227  05B9  3000               	movlw	0
  5228  05BA  00B5               	movwf	light@l4+1
  5229  05BB  3000               	movlw	0
  5230  05BC  00B6               	movwf	light@l3
  5231  05BD  00B7               	movwf	light@l3+1
  5232  05BE  3000               	movlw	0
  5233  05BF  00B8               	movwf	light@l2
  5234  05C0  00B9               	movwf	light@l2+1
  5235  05C1  3000               	movlw	0
  5236  05C2  00BA               	movwf	light@l1
  5237  05C3  00BB               	movwf	light@l1+1
  5238  05C4  0141               	movlb	1	; select bank1
  5239  05C5  085D               	movf	(main@dotDelay+1)^(0+128),w
  5240  05C6  0140               	movlb	0	; select bank0
  5241  05C7  00BD               	movwf	light@d+1
  5242  05C8  0141               	movlb	1	; select bank1
  5243  05C9  085C               	movf	main@dotDelay^(0+128),w
  5244  05CA  0140               	movlb	0	; select bank0
  5245  05CB  00BC               	movwf	light@d
  5246  05CC  318A  223F  3180   	fcall	_light
  5247                           
  5248                           ;main.c: 294: light(0,0,0,0,1,1,0,dotDelay);
  5249  05CF  3000               	movlw	0
  5250  05D0  0140               	movlb	0	; select bank0
  5251  05D1  00AE               	movwf	light@l7
  5252  05D2  00AF               	movwf	light@l7+1
  5253  05D3  3000               	movlw	0
  5254  05D4  00B0               	movwf	light@l6
  5255  05D5  00B1               	movwf	light@l6+1
  5256  05D6  3000               	movlw	0
  5257  05D7  00B2               	movwf	light@l5
  5258  05D8  00B3               	movwf	light@l5+1
  5259  05D9  3000               	movlw	0
  5260  05DA  00B4               	movwf	light@l4
  5261  05DB  00B5               	movwf	light@l4+1
  5262  05DC  3001               	movlw	1
  5263  05DD  00B6               	movwf	light@l3
  5264  05DE  3000               	movlw	0
  5265  05DF  00B7               	movwf	light@l3+1
  5266  05E0  3001               	movlw	1
  5267  05E1  00B8               	movwf	light@l2
  5268  05E2  3000               	movlw	0
  5269  05E3  00B9               	movwf	light@l2+1
  5270  05E4  3000               	movlw	0
  5271  05E5  00BA               	movwf	light@l1
  5272  05E6  00BB               	movwf	light@l1+1
  5273  05E7  0141               	movlb	1	; select bank1
  5274  05E8  085D               	movf	(main@dotDelay+1)^(0+128),w
  5275  05E9  0140               	movlb	0	; select bank0
  5276  05EA  00BD               	movwf	light@d+1
  5277  05EB  0141               	movlb	1	; select bank1
  5278  05EC  085C               	movf	main@dotDelay^(0+128),w
  5279  05ED  0140               	movlb	0	; select bank0
  5280  05EE  00BC               	movwf	light@d
  5281  05EF  318A  223F  3180   	fcall	_light
  5282                           
  5283                           ;main.c: 295: light(1,1,1,1,1,1,1,dotDelay);
  5284  05F2  3001               	movlw	1
  5285  05F3  0140               	movlb	0	; select bank0
  5286  05F4  00AE               	movwf	light@l7
  5287  05F5  3000               	movlw	0
  5288  05F6  00AF               	movwf	light@l7+1
  5289  05F7  3001               	movlw	1
  5290  05F8  00B0               	movwf	light@l6
  5291  05F9  3000               	movlw	0
  5292  05FA  00B1               	movwf	light@l6+1
  5293  05FB  3001               	movlw	1
  5294  05FC  00B2               	movwf	light@l5
  5295  05FD  3000               	movlw	0
  5296  05FE  00B3               	movwf	light@l5+1
  5297  05FF  3001               	movlw	1
  5298  0600  00B4               	movwf	light@l4
  5299  0601  3000               	movlw	0
  5300  0602  00B5               	movwf	light@l4+1
  5301  0603  3001               	movlw	1
  5302  0604  00B6               	movwf	light@l3
  5303  0605  3000               	movlw	0
  5304  0606  00B7               	movwf	light@l3+1
  5305  0607  3001               	movlw	1
  5306  0608  00B8               	movwf	light@l2
  5307  0609  3000               	movlw	0
  5308  060A  00B9               	movwf	light@l2+1
  5309  060B  3001               	movlw	1
  5310  060C  00BA               	movwf	light@l1
  5311  060D  3000               	movlw	0
  5312  060E  00BB               	movwf	light@l1+1
  5313  060F  0141               	movlb	1	; select bank1
  5314  0610  085D               	movf	(main@dotDelay+1)^(0+128),w
  5315  0611  0140               	movlb	0	; select bank0
  5316  0612  00BD               	movwf	light@d+1
  5317  0613  0141               	movlb	1	; select bank1
  5318  0614  085C               	movf	main@dotDelay^(0+128),w
  5319  0615  0140               	movlb	0	; select bank0
  5320  0616  00BC               	movwf	light@d
  5321  0617  318A  223F  3180   	fcall	_light
  5322                           
  5323                           ;main.c: 296: light(0,0,0,0,0,0,0,spaceDelay);
  5324  061A  3000               	movlw	0
  5325  061B  0140               	movlb	0	; select bank0
  5326  061C  00AE               	movwf	light@l7
  5327  061D  00AF               	movwf	light@l7+1
  5328  061E  3000               	movlw	0
  5329  061F  00B0               	movwf	light@l6
  5330  0620  00B1               	movwf	light@l6+1
  5331  0621  3000               	movlw	0
  5332  0622  00B2               	movwf	light@l5
  5333  0623  00B3               	movwf	light@l5+1
  5334  0624  3000               	movlw	0
  5335  0625  00B4               	movwf	light@l4
  5336  0626  00B5               	movwf	light@l4+1
  5337  0627  3000               	movlw	0
  5338  0628  00B6               	movwf	light@l3
  5339  0629  00B7               	movwf	light@l3+1
  5340  062A  3000               	movlw	0
  5341  062B  00B8               	movwf	light@l2
  5342  062C  00B9               	movwf	light@l2+1
  5343  062D  3000               	movlw	0
  5344  062E  00BA               	movwf	light@l1
  5345  062F  00BB               	movwf	light@l1+1
  5346  0630  0141               	movlb	1	; select bank1
  5347  0631  085B               	movf	(main@spaceDelay+1)^(0+128),w
  5348  0632  0140               	movlb	0	; select bank0
  5349  0633  00BD               	movwf	light@d+1
  5350  0634  0141               	movlb	1	; select bank1
  5351  0635  085A               	movf	main@spaceDelay^(0+128),w
  5352  0636  0140               	movlb	0	; select bank0
  5353  0637  00BC               	movwf	light@d
  5354  0638  318A  223F  3180   	fcall	_light
  5355                           
  5356                           ;main.c: 297: light(1,1,1,1,1,1,1,dotDelay);
  5357  063B  3001               	movlw	1
  5358  063C  0140               	movlb	0	; select bank0
  5359  063D  00AE               	movwf	light@l7
  5360  063E  3000               	movlw	0
  5361  063F  00AF               	movwf	light@l7+1
  5362  0640  3001               	movlw	1
  5363  0641  00B0               	movwf	light@l6
  5364  0642  3000               	movlw	0
  5365  0643  00B1               	movwf	light@l6+1
  5366  0644  3001               	movlw	1
  5367  0645  00B2               	movwf	light@l5
  5368  0646  3000               	movlw	0
  5369  0647  00B3               	movwf	light@l5+1
  5370  0648  3001               	movlw	1
  5371  0649  00B4               	movwf	light@l4
  5372  064A  3000               	movlw	0
  5373  064B  00B5               	movwf	light@l4+1
  5374  064C  3001               	movlw	1
  5375  064D  00B6               	movwf	light@l3
  5376  064E  3000               	movlw	0
  5377  064F  00B7               	movwf	light@l3+1
  5378  0650  3001               	movlw	1
  5379  0651  00B8               	movwf	light@l2
  5380  0652  3000               	movlw	0
  5381  0653  00B9               	movwf	light@l2+1
  5382  0654  3001               	movlw	1
  5383  0655  00BA               	movwf	light@l1
  5384  0656  3000               	movlw	0
  5385  0657  00BB               	movwf	light@l1+1
  5386  0658  0141               	movlb	1	; select bank1
  5387  0659  085D               	movf	(main@dotDelay+1)^(0+128),w
  5388  065A  0140               	movlb	0	; select bank0
  5389  065B  00BD               	movwf	light@d+1
  5390  065C  0141               	movlb	1	; select bank1
  5391  065D  085C               	movf	main@dotDelay^(0+128),w
  5392  065E  0140               	movlb	0	; select bank0
  5393  065F  00BC               	movwf	light@d
  5394  0660  318A  223F  3180   	fcall	_light
  5395                           
  5396                           ;main.c: 298: light(1,0,0,1,0,0,1,dotDelay);
  5397  0663  3001               	movlw	1
  5398  0664  0140               	movlb	0	; select bank0
  5399  0665  00AE               	movwf	light@l7
  5400  0666  3000               	movlw	0
  5401  0667  00AF               	movwf	light@l7+1
  5402  0668  3000               	movlw	0
  5403  0669  00B0               	movwf	light@l6
  5404  066A  00B1               	movwf	light@l6+1
  5405  066B  3000               	movlw	0
  5406  066C  00B2               	movwf	light@l5
  5407  066D  00B3               	movwf	light@l5+1
  5408  066E  3001               	movlw	1
  5409  066F  00B4               	movwf	light@l4
  5410  0670  3000               	movlw	0
  5411  0671  00B5               	movwf	light@l4+1
  5412  0672  3000               	movlw	0
  5413  0673  00B6               	movwf	light@l3
  5414  0674  00B7               	movwf	light@l3+1
  5415  0675  3000               	movlw	0
  5416  0676  00B8               	movwf	light@l2
  5417  0677  00B9               	movwf	light@l2+1
  5418  0678  3001               	movlw	1
  5419  0679  00BA               	movwf	light@l1
  5420  067A  3000               	movlw	0
  5421  067B  00BB               	movwf	light@l1+1
  5422  067C  0141               	movlb	1	; select bank1
  5423  067D  085D               	movf	(main@dotDelay+1)^(0+128),w
  5424  067E  0140               	movlb	0	; select bank0
  5425  067F  00BD               	movwf	light@d+1
  5426  0680  0141               	movlb	1	; select bank1
  5427  0681  085C               	movf	main@dotDelay^(0+128),w
  5428  0682  0140               	movlb	0	; select bank0
  5429  0683  00BC               	movwf	light@d
  5430  0684  318A  223F  3180   	fcall	_light
  5431                           
  5432                           ;main.c: 299: light(1,0,0,1,0,0,1,dotDelay);
  5433  0687  3001               	movlw	1
  5434  0688  0140               	movlb	0	; select bank0
  5435  0689  00AE               	movwf	light@l7
  5436  068A  3000               	movlw	0
  5437  068B  00AF               	movwf	light@l7+1
  5438  068C  3000               	movlw	0
  5439  068D  00B0               	movwf	light@l6
  5440  068E  00B1               	movwf	light@l6+1
  5441  068F  3000               	movlw	0
  5442  0690  00B2               	movwf	light@l5
  5443  0691  00B3               	movwf	light@l5+1
  5444  0692  3001               	movlw	1
  5445  0693  00B4               	movwf	light@l4
  5446  0694  3000               	movlw	0
  5447  0695  00B5               	movwf	light@l4+1
  5448  0696  3000               	movlw	0
  5449  0697  00B6               	movwf	light@l3
  5450  0698  00B7               	movwf	light@l3+1
  5451  0699  3000               	movlw	0
  5452  069A  00B8               	movwf	light@l2
  5453  069B  00B9               	movwf	light@l2+1
  5454  069C  3001               	movlw	1
  5455  069D  00BA               	movwf	light@l1
  5456  069E  3000               	movlw	0
  5457  069F  00BB               	movwf	light@l1+1
  5458  06A0  0141               	movlb	1	; select bank1
  5459  06A1  085D               	movf	(main@dotDelay+1)^(0+128),w
  5460  06A2  0140               	movlb	0	; select bank0
  5461  06A3  00BD               	movwf	light@d+1
  5462  06A4  0141               	movlb	1	; select bank1
  5463  06A5  085C               	movf	main@dotDelay^(0+128),w
  5464  06A6  0140               	movlb	0	; select bank0
  5465  06A7  00BC               	movwf	light@d
  5466  06A8  318A  223F  3180   	fcall	_light
  5467                           
  5468                           ;main.c: 300: light(1,0,0,1,1,1,1,dotDelay);
  5469  06AB  3001               	movlw	1
  5470  06AC  0140               	movlb	0	; select bank0
  5471  06AD  00AE               	movwf	light@l7
  5472  06AE  3000               	movlw	0
  5473  06AF  00AF               	movwf	light@l7+1
  5474  06B0  3000               	movlw	0
  5475  06B1  00B0               	movwf	light@l6
  5476  06B2  00B1               	movwf	light@l6+1
  5477  06B3  3000               	movlw	0
  5478  06B4  00B2               	movwf	light@l5
  5479  06B5  00B3               	movwf	light@l5+1
  5480  06B6  3001               	movlw	1
  5481  06B7  00B4               	movwf	light@l4
  5482  06B8  3000               	movlw	0
  5483  06B9  00B5               	movwf	light@l4+1
  5484  06BA  3001               	movlw	1
  5485  06BB  00B6               	movwf	light@l3
  5486  06BC  3000               	movlw	0
  5487  06BD  00B7               	movwf	light@l3+1
  5488  06BE  3001               	movlw	1
  5489  06BF  00B8               	movwf	light@l2
  5490  06C0  3000               	movlw	0
  5491  06C1  00B9               	movwf	light@l2+1
  5492  06C2  3001               	movlw	1
  5493  06C3  00BA               	movwf	light@l1
  5494  06C4  3000               	movlw	0
  5495  06C5  00BB               	movwf	light@l1+1
  5496  06C6  0141               	movlb	1	; select bank1
  5497  06C7  085D               	movf	(main@dotDelay+1)^(0+128),w
  5498  06C8  0140               	movlb	0	; select bank0
  5499  06C9  00BD               	movwf	light@d+1
  5500  06CA  0141               	movlb	1	; select bank1
  5501  06CB  085C               	movf	main@dotDelay^(0+128),w
  5502  06CC  0140               	movlb	0	; select bank0
  5503  06CD  00BC               	movwf	light@d
  5504  06CE  318A  223F  3180   	fcall	_light
  5505                           
  5506                           ;main.c: 301: light(1,1,1,1,1,1,1,dotDelay);
  5507  06D1  3001               	movlw	1
  5508  06D2  0140               	movlb	0	; select bank0
  5509  06D3  00AE               	movwf	light@l7
  5510  06D4  3000               	movlw	0
  5511  06D5  00AF               	movwf	light@l7+1
  5512  06D6  3001               	movlw	1
  5513  06D7  00B0               	movwf	light@l6
  5514  06D8  3000               	movlw	0
  5515  06D9  00B1               	movwf	light@l6+1
  5516  06DA  3001               	movlw	1
  5517  06DB  00B2               	movwf	light@l5
  5518  06DC  3000               	movlw	0
  5519  06DD  00B3               	movwf	light@l5+1
  5520  06DE  3001               	movlw	1
  5521  06DF  00B4               	movwf	light@l4
  5522  06E0  3000               	movlw	0
  5523  06E1  00B5               	movwf	light@l4+1
  5524  06E2  3001               	movlw	1
  5525  06E3  00B6               	movwf	light@l3
  5526  06E4  3000               	movlw	0
  5527  06E5  00B7               	movwf	light@l3+1
  5528  06E6  3001               	movlw	1
  5529  06E7  00B8               	movwf	light@l2
  5530  06E8  3000               	movlw	0
  5531  06E9  00B9               	movwf	light@l2+1
  5532  06EA  3001               	movlw	1
  5533  06EB  00BA               	movwf	light@l1
  5534  06EC  3000               	movlw	0
  5535  06ED  00BB               	movwf	light@l1+1
  5536  06EE  0141               	movlb	1	; select bank1
  5537  06EF  085D               	movf	(main@dotDelay+1)^(0+128),w
  5538  06F0  0140               	movlb	0	; select bank0
  5539  06F1  00BD               	movwf	light@d+1
  5540  06F2  0141               	movlb	1	; select bank1
  5541  06F3  085C               	movf	main@dotDelay^(0+128),w
  5542  06F4  0140               	movlb	0	; select bank0
  5543  06F5  00BC               	movwf	light@d
  5544  06F6  318A  223F  3180   	fcall	_light
  5545                           
  5546                           ;main.c: 302: light(0,0,0,0,0,0,0,spaceDelay);
  5547  06F9  3000               	movlw	0
  5548  06FA  0140               	movlb	0	; select bank0
  5549  06FB  00AE               	movwf	light@l7
  5550  06FC  00AF               	movwf	light@l7+1
  5551  06FD  3000               	movlw	0
  5552  06FE  00B0               	movwf	light@l6
  5553  06FF  00B1               	movwf	light@l6+1
  5554  0700  3000               	movlw	0
  5555  0701  00B2               	movwf	light@l5
  5556  0702  00B3               	movwf	light@l5+1
  5557  0703  3000               	movlw	0
  5558  0704  00B4               	movwf	light@l4
  5559  0705  00B5               	movwf	light@l4+1
  5560  0706  3000               	movlw	0
  5561  0707  00B6               	movwf	light@l3
  5562  0708  00B7               	movwf	light@l3+1
  5563  0709  3000               	movlw	0
  5564  070A  00B8               	movwf	light@l2
  5565  070B  00B9               	movwf	light@l2+1
  5566  070C  3000               	movlw	0
  5567  070D  00BA               	movwf	light@l1
  5568  070E  00BB               	movwf	light@l1+1
  5569  070F  0141               	movlb	1	; select bank1
  5570  0710  085B               	movf	(main@spaceDelay+1)^(0+128),w
  5571  0711  0140               	movlb	0	; select bank0
  5572  0712  00BD               	movwf	light@d+1
  5573  0713  0141               	movlb	1	; select bank1
  5574  0714  085A               	movf	main@spaceDelay^(0+128),w
  5575  0715  0140               	movlb	0	; select bank0
  5576  0716  00BC               	movwf	light@d
  5577  0717  318A  223F  3180   	fcall	_light
  5578                           
  5579                           ;main.c: 303: light(0,0,0,0,0,0,0,2000);
  5580  071A  3000               	movlw	0
  5581  071B  0140               	movlb	0	; select bank0
  5582  071C  00AE               	movwf	light@l7
  5583  071D  00AF               	movwf	light@l7+1
  5584  071E  3000               	movlw	0
  5585  071F  00B0               	movwf	light@l6
  5586  0720  00B1               	movwf	light@l6+1
  5587  0721  3000               	movlw	0
  5588  0722  00B2               	movwf	light@l5
  5589  0723  00B3               	movwf	light@l5+1
  5590  0724  3000               	movlw	0
  5591  0725  00B4               	movwf	light@l4
  5592  0726  00B5               	movwf	light@l4+1
  5593  0727  3000               	movlw	0
  5594  0728  00B6               	movwf	light@l3
  5595  0729  00B7               	movwf	light@l3+1
  5596  072A  3000               	movlw	0
  5597  072B  00B8               	movwf	light@l2
  5598  072C  00B9               	movwf	light@l2+1
  5599  072D  3000               	movlw	0
  5600  072E  00BA               	movwf	light@l1
  5601  072F  00BB               	movwf	light@l1+1
  5602  0730  30D0               	movlw	208
  5603  0731  00BC               	movwf	light@d
  5604  0732  3007               	movlw	7
  5605  0733  00BD               	movwf	light@d+1
  5606  0734  318A  223F  3180   	fcall	_light
  5607  0737                     L10:	
  5608                           
  5609                           ;main.c: 304: break;
  5610  0737  318B  2B60         	goto	L8
  5611  0739                     l1445:	
  5612                           ;main.c: 305: case RBLINK:
  5613                           
  5614                           
  5615                           ;main.c: 306: randomnumber = 1+ (rand() % 7);
  5616  0739  3007               	movlw	7
  5617  073A  0140               	movlb	0	; select bank0
  5618  073B  00A5               	movwf	___awmod@divisor
  5619  073C  3000               	movlw	0
  5620  073D  00A6               	movwf	___awmod@divisor+1
  5621  073E  318A  2278  3180   	fcall	_rand
  5622  0741  087D               	movf	?_rand+1,w
  5623  0742  0140               	movlb	0	; select bank0
  5624  0743  00A8               	movwf	___awmod@dividend+1
  5625  0744  087C               	movf	?_rand,w
  5626  0745  00A7               	movwf	___awmod@dividend
  5627  0746  3180  201E  3180   	fcall	___awmod
  5628  0749  0140               	movlb	0	; select bank0
  5629  074A  0825               	movf	?___awmod,w
  5630  074B  3E01               	addlw	1
  5631  074C  0141               	movlb	1	; select bank1
  5632  074D  00D8               	movwf	main@randomnumber^(0+128)
  5633  074E  3000               	movlw	0
  5634  074F  0140               	movlb	0	; select bank0
  5635  0750  3D26               	addwfc	?___awmod+1,w
  5636  0751  0141               	movlb	1	; select bank1
  5637  0752  00D9               	movwf	(main@randomnumber+1)^(0+128)
  5638                           
  5639                           ;main.c: 307: if(randomnumber==7){
  5640  0753  3007               	movlw	7
  5641  0754  0658               	xorwf	main@randomnumber^(0+128),w
  5642  0755  0459               	iorwf	(main@randomnumber+1)^(0+128),w
  5643  0756  1D03               	btfss	3,2
  5644  0757  2F64               	goto	l1451
  5645                           
  5646                           ;main.c: 308: do { LATAbits.LATA0 = ~LATAbits.LATA0; } while(0);
  5647  0758  1003               	clrc
  5648  0759  0140               	movlb	0	; select bank0
  5649  075A  1C18               	btfss	24,0	;volatile
  5650  075B  1403               	setc
  5651  075C  1C03               	btfss	3,0
  5652  075D  2F61               	goto	u1580
  5653  075E  0140               	movlb	0	; select bank0
  5654  075F  1418               	bsf	24,0	;volatile
  5655  0760  2FC9               	goto	l1473
  5656  0761                     u1580:	
  5657  0761  0140               	movlb	0	; select bank0
  5658  0762  1018               	bcf	24,0	;volatile
  5659                           
  5660                           ;main.c: 309: }
  5661  0763  2FC9               	goto	l1473
  5662  0764                     l1451:	
  5663                           
  5664                           ;main.c: 310: else if(randomnumber==6){
  5665  0764  3006               	movlw	6
  5666  0765  0141               	movlb	1	; select bank1
  5667  0766  0658               	xorwf	main@randomnumber^(0+128),w
  5668  0767  0459               	iorwf	(main@randomnumber+1)^(0+128),w
  5669  0768  1D03               	btfss	3,2
  5670  0769  2F76               	goto	l1455
  5671                           
  5672                           ;main.c: 311: do { LATAbits.LATA1 = ~LATAbits.LATA1; } while(0);
  5673  076A  1003               	clrc
  5674  076B  0140               	movlb	0	; select bank0
  5675  076C  1C98               	btfss	24,1	;volatile
  5676  076D  1403               	setc
  5677  076E  1C03               	btfss	3,0
  5678  076F  2F73               	goto	u1610
  5679  0770  0140               	movlb	0	; select bank0
  5680  0771  1498               	bsf	24,1	;volatile
  5681  0772  2FC9               	goto	l1473
  5682  0773                     u1610:	
  5683  0773  0140               	movlb	0	; select bank0
  5684  0774  1098               	bcf	24,1	;volatile
  5685                           
  5686                           ;main.c: 312: }
  5687  0775  2FC9               	goto	l1473
  5688  0776                     l1455:	
  5689                           
  5690                           ;main.c: 313: else if(randomnumber==5){
  5691  0776  3005               	movlw	5
  5692  0777  0141               	movlb	1	; select bank1
  5693  0778  0658               	xorwf	main@randomnumber^(0+128),w
  5694  0779  0459               	iorwf	(main@randomnumber+1)^(0+128),w
  5695  077A  1D03               	btfss	3,2
  5696  077B  2F88               	goto	l1459
  5697                           
  5698                           ;main.c: 314: do { LATAbits.LATA2 = ~LATAbits.LATA2; } while(0);
  5699  077C  1003               	clrc
  5700  077D  0140               	movlb	0	; select bank0
  5701  077E  1D18               	btfss	24,2	;volatile
  5702  077F  1403               	setc
  5703  0780  1C03               	btfss	3,0
  5704  0781  2F85               	goto	u1640
  5705  0782  0140               	movlb	0	; select bank0
  5706  0783  1518               	bsf	24,2	;volatile
  5707  0784  2FC9               	goto	l1473
  5708  0785                     u1640:	
  5709  0785  0140               	movlb	0	; select bank0
  5710  0786  1118               	bcf	24,2	;volatile
  5711                           
  5712                           ;main.c: 315: }
  5713  0787  2FC9               	goto	l1473
  5714  0788                     l1459:	
  5715                           
  5716                           ;main.c: 316: else if(randomnumber==4){
  5717  0788  3004               	movlw	4
  5718  0789  0141               	movlb	1	; select bank1
  5719  078A  0658               	xorwf	main@randomnumber^(0+128),w
  5720  078B  0459               	iorwf	(main@randomnumber+1)^(0+128),w
  5721  078C  1D03               	btfss	3,2
  5722  078D  2F9A               	goto	l1463
  5723                           
  5724                           ;main.c: 317: do { LATCbits.LATC0 = ~LATCbits.LATC0; } while(0);
  5725  078E  1003               	clrc
  5726  078F  0140               	movlb	0	; select bank0
  5727  0790  1C1A               	btfss	26,0	;volatile
  5728  0791  1403               	setc
  5729  0792  1C03               	btfss	3,0
  5730  0793  2F97               	goto	u1670
  5731  0794  0140               	movlb	0	; select bank0
  5732  0795  141A               	bsf	26,0	;volatile
  5733  0796  2FC9               	goto	l1473
  5734  0797                     u1670:	
  5735  0797  0140               	movlb	0	; select bank0
  5736  0798  101A               	bcf	26,0	;volatile
  5737                           
  5738                           ;main.c: 318: }
  5739  0799  2FC9               	goto	l1473
  5740  079A                     l1463:	
  5741                           
  5742                           ;main.c: 319: else if(randomnumber==3){
  5743  079A  3003               	movlw	3
  5744  079B  0141               	movlb	1	; select bank1
  5745  079C  0658               	xorwf	main@randomnumber^(0+128),w
  5746  079D  0459               	iorwf	(main@randomnumber+1)^(0+128),w
  5747  079E  1D03               	btfss	3,2
  5748  079F  2FAC               	goto	l1467
  5749                           
  5750                           ;main.c: 320: do { LATCbits.LATC1 = ~LATCbits.LATC1; } while(0);
  5751  07A0  1003               	clrc
  5752  07A1  0140               	movlb	0	; select bank0
  5753  07A2  1C9A               	btfss	26,1	;volatile
  5754  07A3  1403               	setc
  5755  07A4  1C03               	btfss	3,0
  5756  07A5  2FA9               	goto	u1700
  5757  07A6  0140               	movlb	0	; select bank0
  5758  07A7  149A               	bsf	26,1	;volatile
  5759  07A8  2FC9               	goto	l1473
  5760  07A9                     u1700:	
  5761  07A9  0140               	movlb	0	; select bank0
  5762  07AA  109A               	bcf	26,1	;volatile
  5763                           
  5764                           ;main.c: 321: }
  5765  07AB  2FC9               	goto	l1473
  5766  07AC                     l1467:	
  5767                           
  5768                           ;main.c: 322: else if(randomnumber==2){
  5769  07AC  3002               	movlw	2
  5770  07AD  0141               	movlb	1	; select bank1
  5771  07AE  0658               	xorwf	main@randomnumber^(0+128),w
  5772  07AF  0459               	iorwf	(main@randomnumber+1)^(0+128),w
  5773  07B0  1D03               	btfss	3,2
  5774  07B1  2FBE               	goto	l1471
  5775                           
  5776                           ;main.c: 323: do { LATCbits.LATC2 = ~LATCbits.LATC2; } while(0);
  5777  07B2  1003               	clrc
  5778  07B3  0140               	movlb	0	; select bank0
  5779  07B4  1D1A               	btfss	26,2	;volatile
  5780  07B5  1403               	setc
  5781  07B6  1C03               	btfss	3,0
  5782  07B7  2FBB               	goto	u1730
  5783  07B8  0140               	movlb	0	; select bank0
  5784  07B9  151A               	bsf	26,2	;volatile
  5785  07BA  2FC9               	goto	l1473
  5786  07BB                     u1730:	
  5787  07BB  0140               	movlb	0	; select bank0
  5788  07BC  111A               	bcf	26,2	;volatile
  5789                           
  5790                           ;main.c: 324: }
  5791  07BD  2FC9               	goto	l1473
  5792  07BE                     l1471:	
  5793                           ;main.c: 325: else {
  5794                           ;main.c: 326: do { LATCbits.LATC3 = ~LATCbits.LATC3; } while(0);
  5795                           
  5796  07BE  1003               	clrc
  5797  07BF  0140               	movlb	0	; select bank0
  5798  07C0  1D9A               	btfss	26,3	;volatile
  5799  07C1  1403               	setc
  5800  07C2  1C03               	btfss	3,0
  5801  07C3  2FC7               	goto	u1750
  5802  07C4  0140               	movlb	0	; select bank0
  5803  07C5  159A               	bsf	26,3	;volatile
  5804  07C6  2FC9               	goto	l1473
  5805  07C7                     u1750:	
  5806  07C7  0140               	movlb	0	; select bank0
  5807  07C8  119A               	bcf	26,3	;volatile
  5808  07C9                     l1473:	
  5809                           
  5810                           ;main.c: 327: }
  5811                           ;main.c: 328: delay_ms(50);
  5812  07C9  3032               	movlw	50
  5813  07CA  00AC               	movwf	delay_ms@milliseconds
  5814  07CB  3000               	movlw	0
  5815  07CC  00AD               	movwf	delay_ms@milliseconds+1
  5816  07CD  3189  21BA  3180   	fcall	_delay_ms
  5817                           
  5818                           ;main.c: 329: break;
  5819  07D0  2F37               	goto	L10
  5820  07D1                     l335:	
  5821                           ;main.c: 331: do { LATCbits.LATC3 = 0; } while(0);
  5822                           
  5823                           ;main.c: 330: case SLEEP:
  5824                           
  5825  07D1  0140               	movlb	0	; select bank0
  5826  07D2  119A               	bcf	26,3	;volatile
  5827                           
  5828                           ;main.c: 332: do { LATCbits.LATC2 = 0; } while(0);
  5829  07D3  111A               	bcf	26,2	;volatile
  5830                           
  5831                           ;main.c: 333: do { LATCbits.LATC1 = 0; } while(0);
  5832  07D4  109A               	bcf	26,1	;volatile
  5833                           
  5834                           ;main.c: 334: do { LATCbits.LATC0 = 0; } while(0);
  5835  07D5  101A               	bcf	26,0	;volatile
  5836                           
  5837                           ;main.c: 335: do { LATAbits.LATA2 = 0; } while(0);
  5838  07D6  1118               	bcf	24,2	;volatile
  5839                           
  5840                           ;main.c: 336: do { LATAbits.LATA1 = 0; } while(0);
  5841  07D7  1098               	bcf	24,1	;volatile
  5842                           
  5843                           ;main.c: 337: do { LATAbits.LATA0 = 0; } while(0);
  5844  07D8  1018               	bcf	24,0	;volatile
  5845                           
  5846                           ;main.c: 341: }
  5847                           
  5848                           ;main.c: 340: break;
  5849                           
  5850                           ;main.c: 339: default:
  5851                           
  5852                           ;main.c: 338: break;
  5853  07D9  2F37               	goto	L10
  5854  07DA                     l1477:	
  5855  07DA  0141               	movlb	1	; select bank1
  5856  07DB  0857               	movf	main@state^(0+128),w
  5857                           
  5858                           ; Switch size 1, requested type "space"
  5859                           ; Number of cases is 9, Range of values is 0 to 8
  5860                           ; switch strategies available:
  5861                           ; Name         Instructions Cycles
  5862                           ; direct_byte           24     6 (fixed)
  5863                           ; simple_byte           28    15 (average)
  5864                           ; jumptable            260     6 (fixed)
  5865                           ;	Chosen strategy is direct_byte
  5866  07DC  0084               	movwf	4
  5867  07DD  3009               	movlw	9
  5868  07DE  0204               	subwf	4,w
  5869  07DF  1803               	skipnc
  5870  07E0  2F37               	goto	L10
  5871  07E1  3188               	movlp	high S1529
  5872  07E2  3504               	lslf	4,w
  5873  07E3  3E00               	addlw	low S1529
  5874  07E4  0082               	movwf	2
  5875  07E5  2F37               	goto	L10
  5876  07E6                     __end_of_main:	


Data Sizes:
    Strings     0
    Constant    0
    Data        57
    BSS         0
    Persistent  0
    Stack       0

Auto Spaces:
    Space          Size  Autos    Used
    COMMON           14     14      14
    BANK0            80     31      35
    BANK1            80     62      62
    BANK2            80      0      53
    BANK3            80      0       0
    BANK4            80      0       0
    BANK5            80      0       0
    BANK6            80      0       0
    BANK7            80      0       0
    BANK8            80      0       0
    BANK9            80      0       0
    BANK10           80      0       0
    BANK11           80      0       0
    BANK12           48      0       0

Pointer List with Targets:

    None.

Critical Paths under _main in COMMON

    _main->_rand
    _rand->___lmul
    _delay_ms->_rand
    ___awmod->_rand

Critical Paths under _main in BANK0

    _main->_light
    _light->_delay_ms
    _delay_ms->___awmod
    ___awmod->_rand

Critical Paths under _main in BANK1

    None.

Critical Paths under _main in BANK2

    None.

Critical Paths under _main in BANK3

    None.

Critical Paths under _main in BANK4

    None.

Critical Paths under _main in BANK5

    None.

Critical Paths under _main in BANK6

    None.

Critical Paths under _main in BANK7

    None.

Critical Paths under _main in BANK8

    None.

Critical Paths under _main in BANK9

    None.

Critical Paths under _main in BANK10

    None.

Critical Paths under _main in BANK11

    None.

Critical Paths under _main in BANK12

    None.

Call Graph Tables:

 ---------------------------------------------------------------------------------
 (Depth) Function   	        Calls       Base Space   Used Autos Params    Refs
 ---------------------------------------------------------------------------------
 (0) _main                                                63    63      0   27905
                                             30 BANK0      1     1      0
                                              0 BANK1     62    62      0
                  _SYSTEM_Initialize
                            ___awmod
                           _delay_ms
                              _light
                               _rand
 ---------------------------------------------------------------------------------
 (1) _rand                                                 7     5      2     178
                                             12 COMMON     2     0      2
                                              0 BANK0      5     5      0
                             ___lmul
 ---------------------------------------------------------------------------------
 (2) ___lmul                                              12     4      8     178
                                              0 COMMON    12     4      8
 ---------------------------------------------------------------------------------
 (1) _light                                               16     0     16   24150
                                             14 BANK0     16     0     16
                           _delay_ms
 ---------------------------------------------------------------------------------
 (2) _delay_ms                                             2     0      2     926
                                             12 BANK0      2     0      2
                            ___awmod (ARG)
                               _rand (ARG)
 ---------------------------------------------------------------------------------
 (1) ___awmod                                              7     3      4     984
                                              5 BANK0      7     3      4
                               _rand (ARG)
 ---------------------------------------------------------------------------------
 (1) _SYSTEM_Initialize                                    0     0      0       0
              _OSCILLATOR_Initialize
             _PIN_MANAGER_Initialize
 ---------------------------------------------------------------------------------
 (2) _PIN_MANAGER_Initialize                               0     0      0       0
 ---------------------------------------------------------------------------------
 (2) _OSCILLATOR_Initialize                                0     0      0       0
 ---------------------------------------------------------------------------------
 Estimated maximum stack depth 2
 ---------------------------------------------------------------------------------

 Call Graph Graphs:

 _main (ROOT)
   _SYSTEM_Initialize
     _OSCILLATOR_Initialize
     _PIN_MANAGER_Initialize
   ___awmod
     _rand (ARG)
       ___lmul
   _delay_ms
     ___awmod (ARG)
       _rand (ARG)
         ___lmul
     _rand (ARG)
       ___lmul
   _light
     _delay_ms
       ___awmod (ARG)
         _rand (ARG)
           ___lmul
       _rand (ARG)
         ___lmul
   _rand
     ___lmul

 Address spaces:
Name               Size   Autos  Total    Cost      Usage
BIGRAM             3F0      0       0       0        0.0%
NULL                 0      0       0       0        0.0%
CODE                 0      0       0       0        0.0%
BITCOMMON            E      0       0       1        0.0%
BITSFR0              0      0       0       1        0.0%
SFR0                 0      0       0       1        0.0%
COMMON               E      E       E       2      100.0%
BITSFR1              0      0       0       2        0.0%
SFR1                 0      0       0       2        0.0%
BITSFR2              0      0       0       3        0.0%
SFR2                 0      0       0       3        0.0%
STACK                0      0       0       3        0.0%
BITSFR3              0      0       0       4        0.0%
SFR3                 0      0       0       4        0.0%
ABS                  0      0      A4       4        0.0%
BITBANK0            50      0       0       5        0.0%
BITSFR4              0      0       0       5        0.0%
SFR4                 0      0       0       5        0.0%
BANK0               50     1F      23       6       43.8%
BITSFR5              0      0       0       6        0.0%
SFR5                 0      0       0       6        0.0%
BITBANK1            50      0       0       7        0.0%
BITSFR6              0      0       0       7        0.0%
SFR6                 0      0       0       7        0.0%
BANK1               50     3E      3E       8       77.5%
BITSFR7              0      0       0       8        0.0%
SFR7                 0      0       0       8        0.0%
BITBANK2            50      0       0       9        0.0%
BITSFR8              0      0       0       9        0.0%
SFR8                 0      0       0       9        0.0%
BANK2               50      0      35      10       66.2%
BITSFR9              0      0       0      10        0.0%
SFR9                 0      0       0      10        0.0%
BITBANK3            50      0       0      11        0.0%
BITSFR10             0      0       0      11        0.0%
SFR10                0      0       0      11        0.0%
BANK3               50      0       0      12        0.0%
BITSFR11             0      0       0      12        0.0%
SFR11                0      0       0      12        0.0%
BITBANK4            50      0       0      13        0.0%
BITSFR12             0      0       0      13        0.0%
SFR12                0      0       0      13        0.0%
BANK4               50      0       0      14        0.0%
BITSFR13             0      0       0      14        0.0%
SFR13                0      0       0      14        0.0%
BITBANK5            50      0       0      15        0.0%
BITSFR14             0      0       0      15        0.0%
SFR14                0      0       0      15        0.0%
BANK5               50      0       0      16        0.0%
BITSFR15             0      0       0      16        0.0%
SFR15                0      0       0      16        0.0%
BITBANK6            50      0       0      17        0.0%
BITSFR16             0      0       0      17        0.0%
SFR16                0      0       0      17        0.0%
BANK6               50      0       0      18        0.0%
BITSFR17             0      0       0      18        0.0%
SFR17                0      0       0      18        0.0%
BITBANK7            50      0       0      19        0.0%
BITSFR18             0      0       0      19        0.0%
SFR18                0      0       0      19        0.0%
BANK7               50      0       0      20        0.0%
BITSFR19             0      0       0      20        0.0%
SFR19                0      0       0      20        0.0%
BITBANK8            50      0       0      21        0.0%
BITSFR20             0      0       0      21        0.0%
SFR20                0      0       0      21        0.0%
BANK8               50      0       0      22        0.0%
BITSFR21             0      0       0      22        0.0%
SFR21                0      0       0      22        0.0%
BITBANK9            50      0       0      23        0.0%
BITSFR22             0      0       0      23        0.0%
SFR22                0      0       0      23        0.0%
BANK9               50      0       0      24        0.0%
BITSFR23             0      0       0      24        0.0%
SFR23                0      0       0      24        0.0%
BITBANK10           50      0       0      25        0.0%
BITSFR24             0      0       0      25        0.0%
SFR24                0      0       0      25        0.0%
BANK10              50      0       0      26        0.0%
BITSFR25             0      0       0      26        0.0%
SFR25                0      0       0      26        0.0%
BITBANK11           50      0       0      27        0.0%
BITSFR26             0      0       0      27        0.0%
SFR26                0      0       0      27        0.0%
BANK11              50      0       0      28        0.0%
BITSFR27             0      0       0      28        0.0%
SFR27                0      0       0      28        0.0%
BITBANK12           30      0       0      29        0.0%
BITSFR28             0      0       0      29        0.0%
SFR28                0      0       0      29        0.0%
BANK12              30      0       0      30        0.0%
BITSFR29             0      0       0      30        0.0%
SFR29                0      0       0      30        0.0%
BITSFR30             0      0       0      31        0.0%
SFR30                0      0       0      31        0.0%
DATA                 0      0      A4      31        0.0%
BITSFR31             0      0       0      32        0.0%
SFR31                0      0       0      32        0.0%
BITSFR32             0      0       0      33        0.0%
SFR32                0      0       0      33        0.0%
BITSFR33             0      0       0      34        0.0%
SFR33                0      0       0      34        0.0%
BITSFR34             0      0       0      35        0.0%
SFR34                0      0       0      35        0.0%
BITSFR35             0      0       0      36        0.0%
SFR35                0      0       0      36        0.0%
BITSFR36             0      0       0      37        0.0%
SFR36                0      0       0      37        0.0%
BITSFR37             0      0       0      38        0.0%
SFR37                0      0       0      38        0.0%
BITSFR38             0      0       0      39        0.0%
SFR38                0      0       0      39        0.0%
BITSFR39             0      0       0      40        0.0%
SFR39                0      0       0      40        0.0%
BITSFR40             0      0       0      41        0.0%
SFR40                0      0       0      41        0.0%
BITSFR41             0      0       0      42        0.0%
SFR41                0      0       0      42        0.0%
BITSFR42             0      0       0      43        0.0%
SFR42                0      0       0      43        0.0%
BITSFR43             0      0       0      44        0.0%
SFR43                0      0       0      44        0.0%
BITSFR44             0      0       0      45        0.0%
SFR44                0      0       0      45        0.0%
BITSFR45             0      0       0      46        0.0%
SFR45                0      0       0      46        0.0%
BITSFR46             0      0       0      47        0.0%
SFR46                0      0       0      47        0.0%
BITSFR47             0      0       0      48        0.0%
SFR47                0      0       0      48        0.0%
BITSFR48             0      0       0      49        0.0%
SFR48                0      0       0      49        0.0%
BITSFR49             0      0       0      50        0.0%
SFR49                0      0       0      50        0.0%
BITSFR50             0      0       0      51        0.0%
SFR50                0      0       0      51        0.0%
BITSFR51             0      0       0      52        0.0%
SFR51                0      0       0      52        0.0%
BITSFR52             0      0       0      53        0.0%
SFR52                0      0       0      53        0.0%
BITSFR53             0      0       0      54        0.0%
SFR53                0      0       0      54        0.0%
BITSFR54             0      0       0      55        0.0%
SFR54                0      0       0      55        0.0%
BITSFR55             0      0       0      56        0.0%
SFR55                0      0       0      56        0.0%
BITSFR56             0      0       0      57        0.0%
SFR56                0      0       0      57        0.0%
BITSFR57             0      0       0      58        0.0%
SFR57                0      0       0      58        0.0%
BITSFR58             0      0       0      59        0.0%
SFR58                0      0       0      59        0.0%
BITSFR59             0      0       0      60        0.0%
SFR59                0      0       0      60        0.0%
BITSFR60             0      0       0      61        0.0%
SFR60                0      0       0      61        0.0%
BITSFR61             0      0       0      62        0.0%
SFR61                0      0       0      62        0.0%
BITSFR62             0      0       0      63        0.0%
SFR62                0      0       0      63        0.0%
BITSFR63             0      0       0      64        0.0%
SFR63                0      0       0      64        0.0%


Microchip Technology PIC Macro Assembler V1.42 build -159332390 
Symbol Table                                                                                   Fri Oct 27 09:46:02 2017

                              pc 0002                      __CFG_CP$OFF 0000                               l90 0DBF  
                    __CFG_LVP$ON 0000                              l106 0DCD                              l140 0E1A  
                            l142 0E24                              l118 0DF2                              l151 0E55  
                            l144 0E2E                              l136 0E06                              l401 0A70  
                            l161 0E87                              l153 0E5F                              l146 0E38  
                            l138 0E10                              l155 0E69                              l164 0E99  
                            l157 0E73                              l335 07D1                              l159 0E7D  
                            l272 0F9E                              l266 0F32                              l371 0A4D  
                            l365 0A46                              l278 0B42                              l383 0A5B  
                            l377 0A54                              l395 0A69                              l389 0A62  
                            u915 09EE                              u925 09F5                              u945 0AA7  
                   ___awmod@sign 002B                     __CFG_BORV$LO 0000                              wreg 0009  
                  __CFG_BBEN$OFF 0000                             S1527 0004                             S1529 0800  
                   __CFG_ZCD$OFF 0000                             l1221 0A5C                             l1301 0DDA  
                           l1223 0A63                             l1215 0A47                             l1303 0DDC  
                           l1311 0DEF                             l1241 0030                             l1225 0A6A  
                           l1217 0A4E                             l1313 0DFB                             l1305 0DE3  
                           l1251 0042                             l1227 0A71                             l1219 0A55  
                           l1315 0E42                             l1237 0029                             l1317 0E4A  
                           l1309 0DE5                             l1263 005F                             l1255 004E  
                           l1191 09E3                             l1423 0FC2                             l1415 0F56  
                           l1407 0F03                             l1319 0E91                             l1249 0036  
                           l1425 0FE6                             l1417 0F7A                             l1409 0F0E  
                           l1259 0057                             l1187 09BA                             l1195 09ED  
                           l1451 0764                             l1443 0B62                             l1291 0DD0  
                           l1445 0739                             l1293 0DD2                             l1285 0DAE  
                           l1471 07BE                             l1463 079A                             l1455 0776  
                           l1295 0DD4                             l1287 0DC6                             l1279 0DA4  
                           l1473 07C9                             l1297 0DD6                             l1467 07AC  
                           l1459 0788                             l1299 0DD8                             l1477 07DA  
                           u1110 0DA0                             u1210 0E22                             u1310 0E5D  
                           u1230 0E2C                             u1150 0E04                             u1055 0039  
                           u1410 0E8F                             u1330 0E67                             u1250 0E36  
                           u1170 0E0E                             u1075 0048                             u1085 004F  
                           _LATA 0018                             u1510 0F9C                             u1430 0F0C  
                           u1350 0E71                             u1270 0E40                             u1190 0E18  
                           _LATC 001A                             u1610 0773                             u1530 0FC0  
                           u1450 0F30                             u1370 0E7B                             u1290 0E53  
                           u1700 07A9                             u1550 0FE4                             u1470 0F54  
                           u1390 0E85                             u1640 0785                             u1730 07BB  
                           u1490 0F78                             u1580 0761                             u1750 07C7  
                           u1670 0797                             u1777 09C5                             _WPUA 1F39  
                           _WPUC 1F4F                    __CFG_FCMEN$ON 0000                             _main 0D86  
                           _rand 0A78                             fsr0h 0005                             fsr1h 0007  
                           fsr0l 0004                             fsr1l 0006                             btemp 007E  
                  __CFG_BOREN$ON 0000                             start 0002                main@button_pushed 00D5  
                  __CFG_CSWEN$ON 0000                    __CFG_MCLRE$ON 0000                     main@dotDelay 00DC  
 __size_of_OSCILLATOR_Initialize 000A    __end_of_OSCILLATOR_Initialize 09BA                            ?_main 0070  
                          ?_rand 007C                    __CFG_WDTE$OFF 0000                  __end_of___awmod 0064  
                          _OSCEN 0891                            _TRISA 0012                            _TRISC 0014  
            ___lmul@multiplicand 0074                    __CFG_WRTB$OFF 0000                    __CFG_WRTC$OFF 0000  
                          _light 0A3F                            _randx 003F                            status 0003  
                          wtemp0 007E                  __initialization 07E6                     __end_of_main 07E6  
                   __end_of_rand 0AB4                   __CFG_SAFEN$OFF 0000                           ??_main 003E  
                         ??_rand 0020                           ?_light 002E                           _ANSELA 1F38  
                         _ANSELC 1F4E               __CFG_RSTOSC$HFINT1 0000                           _ODCONA 1F3A  
                         _ODCONC 1F50                   __CFG_WDTCCS$SC 0000                           _OSCFRQ 0893  
               __end_of_delay_ms 09C9                   __CFG_PWRTE$OFF 0000             delay_ms@milliseconds 002C  
                         ___lmul 09DB                   __CFG_STVREN$ON 0000                        ??___awmod 0029  
                ___awmod@divisor 0025                  ___awmod@counter 002A                           light@d 003C  
              _SYSTEM_Initialize 09AA          __end_of__initialization 07FD               ?_SYSTEM_Initialize 0070  
                 __pcstackCOMMON 0070                     __pidataBANK0 09A6                     __pidataBANK2 0A0A  
            ??_SYSTEM_Initialize 0070                    __end_of_light 0A78                          ??_light 007E  
      __end_of_SYSTEM_Initialize 09B0                       __pmaintext 0D86                          ?___lmul 0070  
                __CFG_PPS1WAY$ON 0000                   ___lmul@product 0078                          _OSCCON1 088D  
                        _OSCCON3 088F                        ?_delay_ms 002C                          _OSCSTAT 0890  
                        _OSCTUNE 0892                  __size_of___lmul 002F                          ___awmod 001E  
                        __ptext1 0A78                          __ptext2 09DB                          __ptext3 0A3F  
                        __ptext4 09BA                          __ptext5 001E                          __ptext6 09AA  
                        __ptext7 09C9                          __ptext8 09B0                  __CFG_WRTAPP$OFF 0000  
          _OSCILLATOR_Initialize 09B0                 ___awmod@dividend 0027                   main@spaceDelay 00DA  
       ??_PIN_MANAGER_Initialize 0070                  __CFG_WRTSAF$OFF 0000                       ??_delay_ms 007E  
     __size_of_SYSTEM_Initialize 0006             end_of_initialization 07FD                          light@l1 003A  
                        light@l2 0038                          light@l3 0036                          light@l4 0034  
                        light@l5 0032                          light@l6 0030                          light@l7 002E  
                        init_ram 0018                          initloop 0019                          psplit$0 B0016  
                        psplit$1 160017                          psplit$2 170018  
                        psplit$3 180019                          psplit$4 19001A  
                        psplit$5 1A001B            __CFG_WDTCPS$WDTCPS_31 0000                        _PORTCbits 000E  
           pnum$maintext_split_1 0016             pnum$maintext_split_2 0017             pnum$maintext_split_3 0018  
           pnum$maintext_split_4 0019             pnum$maintext_split_5 001A             pnum$maintext_split_6 001B  
               __CFG_FEXTOSC$OFF 0000                       main@string 00A0                   __end_of___lmul 0A0A  
         ?_OSCILLATOR_Initialize 0070              start_initialization 07E6  __size_of_PIN_MANAGER_Initialize 0012  
               __CFG_LPBOREN$OFF 0000                         ??___lmul 0078                      __pdataBANK0 003F  
                    __pdataBANK2 0120                 main@randomnumber 00D8                        ___latbits 0002  
                  __pcstackBANK0 0020                    __pcstackBANK1 00A0                __size_of_delay_ms 000F  
         _PIN_MANAGER_Initialize 09C9                         ?___awmod 0025                        __pswtext1 0004  
                      __pswtext2 0800                   __size_of_light 0039                         _LATAbits 0018  
                       _LATCbits 001A                __CFG_BBSIZE$BB512 0000                        main@F7844 0120  
                      main@state 00D7                ___lmul@multiplier 0070          ??_OSCILLATOR_Initialize 0070  
                   pnum$maintext 000B                 __size_of___awmod 0046                         _delay_ms 09BA  
                  __size_of_main FA60                    __size_of_rand 003C             __CFG_WDTCWS$WDTCWS_7 0000  
        ?_PIN_MANAGER_Initialize 0070                __CFG_CLKOUTEN$OFF 0000   __end_of_PIN_MANAGER_Initialize 09DB  
